Archive member included because of file (symbol)

c:/program files (x86)/atollic/truestudio for arm pro 5.3.1/armtools/bin/../lib/gcc/arm-atollic-eabi/4.8.3/../../../../arm-atollic-eabi/lib/armv7e-m/fpu\libc.a(lib_a-init.o)
                              Application\TrueSTUDIO\startup_stm32f407xx.o (__libc_init_array)
c:/program files (x86)/atollic/truestudio for arm pro 5.3.1/armtools/bin/../lib/gcc/arm-atollic-eabi/4.8.3/../../../../arm-atollic-eabi/lib/armv7e-m/fpu\libc.a(lib_a-malloc.o)
                              Application\User\main.o (malloc)
c:/program files (x86)/atollic/truestudio for arm pro 5.3.1/armtools/bin/../lib/gcc/arm-atollic-eabi/4.8.3/../../../../arm-atollic-eabi/lib/armv7e-m/fpu\libc.a(lib_a-mallocr.o)
                              c:/program files (x86)/atollic/truestudio for arm pro 5.3.1/armtools/bin/../lib/gcc/arm-atollic-eabi/4.8.3/../../../../arm-atollic-eabi/lib/armv7e-m/fpu\libc.a(lib_a-malloc.o) (_malloc_r)
c:/program files (x86)/atollic/truestudio for arm pro 5.3.1/armtools/bin/../lib/gcc/arm-atollic-eabi/4.8.3/../../../../arm-atollic-eabi/lib/armv7e-m/fpu\libc.a(lib_a-memcmp.o)
                              Middlewares\LwIP\etharp.o (memcmp)
c:/program files (x86)/atollic/truestudio for arm pro 5.3.1/armtools/bin/../lib/gcc/arm-atollic-eabi/4.8.3/../../../../arm-atollic-eabi/lib/armv7e-m/fpu\libc.a(lib_a-memcpy-stub.o)
                              Middlewares\LwIP\tcp_out.o (memcpy)
c:/program files (x86)/atollic/truestudio for arm pro 5.3.1/armtools/bin/../lib/gcc/arm-atollic-eabi/4.8.3/../../../../arm-atollic-eabi/lib/armv7e-m/fpu\libc.a(lib_a-memset.o)
                              Middlewares\LwIP\udp.o (memset)
c:/program files (x86)/atollic/truestudio for arm pro 5.3.1/armtools/bin/../lib/gcc/arm-atollic-eabi/4.8.3/../../../../arm-atollic-eabi/lib/armv7e-m/fpu\libc.a(lib_a-mlock.o)
                              c:/program files (x86)/atollic/truestudio for arm pro 5.3.1/armtools/bin/../lib/gcc/arm-atollic-eabi/4.8.3/../../../../arm-atollic-eabi/lib/armv7e-m/fpu\libc.a(lib_a-mallocr.o) (__malloc_lock)
c:/program files (x86)/atollic/truestudio for arm pro 5.3.1/armtools/bin/../lib/gcc/arm-atollic-eabi/4.8.3/../../../../arm-atollic-eabi/lib/armv7e-m/fpu\libc.a(lib_a-sbrkr.o)
                              c:/program files (x86)/atollic/truestudio for arm pro 5.3.1/armtools/bin/../lib/gcc/arm-atollic-eabi/4.8.3/../../../../arm-atollic-eabi/lib/armv7e-m/fpu\libc.a(lib_a-mallocr.o) (_sbrk_r)
c:/program files (x86)/atollic/truestudio for arm pro 5.3.1/armtools/bin/../lib/gcc/arm-atollic-eabi/4.8.3/../../../../arm-atollic-eabi/lib/armv7e-m/fpu\libc.a(lib_a-strlen.o)
                              Middlewares\LwIP\pbuf.o (strlen)
c:/program files (x86)/atollic/truestudio for arm pro 5.3.1/armtools/bin/../lib/gcc/arm-atollic-eabi/4.8.3/../../../../arm-atollic-eabi/lib/armv7e-m/fpu\libc.a(lib_a-syscalls.o)
                              c:/program files (x86)/atollic/truestudio for arm pro 5.3.1/armtools/bin/../lib/gcc/arm-atollic-eabi/4.8.3/../../../../arm-atollic-eabi/lib/armv7e-m/fpu\libc.a(lib_a-sbrkr.o) (_sbrk)
c:/program files (x86)/atollic/truestudio for arm pro 5.3.1/armtools/bin/../lib/gcc/arm-atollic-eabi/4.8.3/../../../../arm-atollic-eabi/lib/armv7e-m/fpu\libc.a(lib_a-freer.o)
                              c:/program files (x86)/atollic/truestudio for arm pro 5.3.1/armtools/bin/../lib/gcc/arm-atollic-eabi/4.8.3/../../../../arm-atollic-eabi/lib/armv7e-m/fpu\libc.a(lib_a-malloc.o) (_free_r)
c:/program files (x86)/atollic/truestudio for arm pro 5.3.1/armtools/bin/../lib/gcc/arm-atollic-eabi/4.8.3/../../../../arm-atollic-eabi/lib/armv7e-m/fpu\libc.a(lib_a-impure.o)
                              c:/program files (x86)/atollic/truestudio for arm pro 5.3.1/armtools/bin/../lib/gcc/arm-atollic-eabi/4.8.3/../../../../arm-atollic-eabi/lib/armv7e-m/fpu\libc.a(lib_a-malloc.o) (_impure_ptr)
c:/program files (x86)/atollic/truestudio for arm pro 5.3.1/armtools/bin/../lib/gcc/arm-atollic-eabi/4.8.3/../../../../arm-atollic-eabi/lib/armv7e-m/fpu\libc.a(lib_a-reent.o)
                              c:/program files (x86)/atollic/truestudio for arm pro 5.3.1/armtools/bin/../lib/gcc/arm-atollic-eabi/4.8.3/../../../../arm-atollic-eabi/lib/armv7e-m/fpu\libc.a(lib_a-sbrkr.o) (errno)

Allocating common symbols
Common symbol       size              file

current_iphdr_src   0x4               Middlewares\LwIP\ip.o
netif_list          0x4               Middlewares\LwIP\netif.o
defaultTaskHandle   0x4               Application\User\main.o
tcp_active_pcbs_changed
                    0x1               Middlewares\LwIP\tcp.o
tcp_active_pcbs     0x4               Middlewares\LwIP\tcp.o
udp_pcbs            0x4               Middlewares\LwIP\udp.o
errno               0x4               c:/program files (x86)/atollic/truestudio for arm pro 5.3.1/armtools/bin/../lib/gcc/arm-atollic-eabi/4.8.3/../../../../arm-atollic-eabi/lib/armv7e-m/fpu\libc.a(lib_a-reent.o)
current_netif       0x4               Middlewares\LwIP\ip.o
tcp_ticks           0x4               Middlewares\LwIP\tcp.o
tcp_listen_pcbs     0x4               Middlewares\LwIP\tcp.o
current_iphdr_dest  0x4               Middlewares\LwIP\ip.o
gnetif              0x34              Application\User\lwip.o
ipaddr              0x4               Application\User\lwip.o
xQueueRegistry      0x40              Middlewares\FreeRTOS\queue.o
pFlash              0x20              Drivers\STM32F4xx_HAL_Driver\stm32f4xx_hal_flash.o
tcp_tmp_pcb         0x4               Middlewares\LwIP\tcp.o
tcp_input_pcb       0x4               Middlewares\LwIP\tcp_in.o
netmask             0x4               Application\User\lwip.o
DMATxDscrTab        0x80              Application\User\ethernetif.o
current_header      0x4               Middlewares\LwIP\ip.o
Rx_Buff             0x17d0            Application\User\ethernetif.o
dhcp_rx_options_given
                    0xa               Middlewares\LwIP\dhcp.o
tcp_bound_pcbs      0x4               Middlewares\LwIP\tcp.o
pbuf_free_ooseq_pending
                    0x1               Middlewares\LwIP\pbuf.o
DMARxDscrTab        0x80              Application\User\ethernetif.o
gw                  0x4               Application\User\lwip.o
tcp_tw_pcbs         0x4               Middlewares\LwIP\tcp.o
netif_default       0x4               Middlewares\LwIP\netif.o
dhcp_rx_options_val
                    0x28              Middlewares\LwIP\dhcp.o
heth                0x48              Application\User\ethernetif.o
ram_heap            0x654             Middlewares\LwIP\mem.o
Tx_Buff             0x17d0            Application\User\ethernetif.o

Discarded input sections

 .text          0x00000000        0x0 c:/program files (x86)/atollic/truestudio for arm pro 5.3.1/armtools/bin/../lib/gcc/arm-atollic-eabi/4.8.3/armv7e-m/fpu/crti.o
 .data          0x00000000        0x0 c:/program files (x86)/atollic/truestudio for arm pro 5.3.1/armtools/bin/../lib/gcc/arm-atollic-eabi/4.8.3/armv7e-m/fpu/crti.o
 .bss           0x00000000        0x0 c:/program files (x86)/atollic/truestudio for arm pro 5.3.1/armtools/bin/../lib/gcc/arm-atollic-eabi/4.8.3/armv7e-m/fpu/crti.o
 .data          0x00000000        0x4 c:/program files (x86)/atollic/truestudio for arm pro 5.3.1/armtools/bin/../lib/gcc/arm-atollic-eabi/4.8.3/armv7e-m/fpu/crtbegin.o
 .text          0x00000000        0x0 Middlewares\LwIP\vj.o
 .data          0x00000000        0x0 Middlewares\LwIP\vj.o
 .bss           0x00000000        0x0 Middlewares\LwIP\vj.o
 .debug_info    0x00000000       0x99 Middlewares\LwIP\vj.o
 .debug_abbrev  0x00000000       0x4b Middlewares\LwIP\vj.o
 .debug_aranges
                0x00000000       0x18 Middlewares\LwIP\vj.o
 .debug_line    0x00000000      0x12e Middlewares\LwIP\vj.o
 .debug_str     0x00000000      0x1f2 Middlewares\LwIP\vj.o
 .comment       0x00000000       0x83 Middlewares\LwIP\vj.o
 .ARM.attributes
                0x00000000       0x39 Middlewares\LwIP\vj.o
 .text          0x00000000        0x0 Middlewares\LwIP\udp.o
 .data          0x00000000        0x0 Middlewares\LwIP\udp.o
 .bss           0x00000000        0x0 Middlewares\LwIP\udp.o
 .text.udp_send
                0x00000000       0x24 Middlewares\LwIP\udp.o
 .text.udp_sendto
                0x00000000       0x3c Middlewares\LwIP\udp.o
 .text          0x00000000        0x0 Middlewares\LwIP\tcpip.o
 .data          0x00000000        0x0 Middlewares\LwIP\tcpip.o
 .bss           0x00000000        0x0 Middlewares\LwIP\tcpip.o
 .text.tcpip_timeout
                0x00000000       0x60 Middlewares\LwIP\tcpip.o
 .text.tcpip_untimeout
                0x00000000       0x58 Middlewares\LwIP\tcpip.o
 .text.tcpip_callbackmsg_new
                0x00000000       0x38 Middlewares\LwIP\tcpip.o
 .text.tcpip_callbackmsg_delete
                0x00000000       0x18 Middlewares\LwIP\tcpip.o
 .text.tcpip_trycallback
                0x00000000       0x30 Middlewares\LwIP\tcpip.o
 .text.pbuf_free_int
                0x00000000       0x18 Middlewares\LwIP\tcpip.o
 .text.pbuf_free_callback
                0x00000000       0x20 Middlewares\LwIP\tcpip.o
 .text.mem_free_callback
                0x00000000       0x20 Middlewares\LwIP\tcpip.o
 .text          0x00000000        0x0 Middlewares\LwIP\tcp_out.o
 .data          0x00000000        0x0 Middlewares\LwIP\tcp_out.o
 .bss           0x00000000        0x0 Middlewares\LwIP\tcp_out.o
 .text          0x00000000        0x0 Middlewares\LwIP\tcp_in.o
 .data          0x00000000        0x0 Middlewares\LwIP\tcp_in.o
 .bss           0x00000000        0x0 Middlewares\LwIP\tcp_in.o
 .text          0x00000000        0x0 Middlewares\LwIP\tcp.o
 .data          0x00000000        0x0 Middlewares\LwIP\tcp.o
 .bss           0x00000000        0x0 Middlewares\LwIP\tcp.o
 .rodata        0x00000000       0x78 Middlewares\LwIP\tcp.o
 .rodata.tcp_state_str
                0x00000000       0x2c Middlewares\LwIP\tcp.o
 .text.tcp_bind
                0x00000000       0xdc Middlewares\LwIP\tcp.o
 .text.tcp_accept_null
                0x00000000       0x20 Middlewares\LwIP\tcp.o
 .text.tcp_listen_with_backlog
                0x00000000      0x114 Middlewares\LwIP\tcp.o
 .text.tcp_setprio
                0x00000000       0x1c Middlewares\LwIP\tcp.o
 .text.tcp_debug_state_str
                0x00000000       0x24 Middlewares\LwIP\tcp.o
 .text          0x00000000        0x0 Middlewares\LwIP\sys_arch.o
 .data          0x00000000        0x0 Middlewares\LwIP\sys_arch.o
 .bss           0x00000000        0x0 Middlewares\LwIP\sys_arch.o
 .text.sys_mutex_free
                0x00000000       0x18 Middlewares\LwIP\sys_arch.o
 .text.sys_arch_protect
                0x00000000       0x10 Middlewares\LwIP\sys_arch.o
 .text.sys_arch_unprotect
                0x00000000       0x14 Middlewares\LwIP\sys_arch.o
 .text.sys_assert
                0x00000000       0x10 Middlewares\LwIP\sys_arch.o
 .text          0x00000000        0x0 Middlewares\LwIP\sys.o
 .data          0x00000000        0x0 Middlewares\LwIP\sys.o
 .bss           0x00000000        0x0 Middlewares\LwIP\sys.o
 .text.sys_msleep
                0x00000000       0x44 Middlewares\LwIP\sys.o
 .debug_info    0x00000000      0x13a Middlewares\LwIP\sys.o
 .debug_abbrev  0x00000000       0xb3 Middlewares\LwIP\sys.o
 .debug_aranges
                0x00000000       0x20 Middlewares\LwIP\sys.o
 .debug_ranges  0x00000000       0x10 Middlewares\LwIP\sys.o
 .debug_line    0x00000000      0x29d Middlewares\LwIP\sys.o
 .debug_str     0x00000000      0x24b Middlewares\LwIP\sys.o
 .comment       0x00000000       0x83 Middlewares\LwIP\sys.o
 .ARM.attributes
                0x00000000       0x39 Middlewares\LwIP\sys.o
 .debug_frame   0x00000000       0x30 Middlewares\LwIP\sys.o
 .text          0x00000000        0x0 Middlewares\LwIP\stats.o
 .data          0x00000000        0x0 Middlewares\LwIP\stats.o
 .bss           0x00000000        0x0 Middlewares\LwIP\stats.o
 .debug_info    0x00000000       0x99 Middlewares\LwIP\stats.o
 .debug_abbrev  0x00000000       0x4b Middlewares\LwIP\stats.o
 .debug_aranges
                0x00000000       0x18 Middlewares\LwIP\stats.o
 .debug_line    0x00000000      0x12e Middlewares\LwIP\stats.o
 .debug_str     0x00000000      0x1f0 Middlewares\LwIP\stats.o
 .comment       0x00000000       0x83 Middlewares\LwIP\stats.o
 .ARM.attributes
                0x00000000       0x39 Middlewares\LwIP\stats.o
 .text          0x00000000        0x0 Middlewares\LwIP\sockets.o
 .data          0x00000000        0x0 Middlewares\LwIP\sockets.o
 .bss           0x00000000        0x0 Middlewares\LwIP\sockets.o
 .text.tryget_socket
                0x00000000       0x50 Middlewares\LwIP\sockets.o
 .text.free_socket
                0x00000000       0x48 Middlewares\LwIP\sockets.o
 .text.lwip_accept
                0x00000000      0x1b4 Middlewares\LwIP\sockets.o
 .text.lwip_bind
                0x00000000       0xb4 Middlewares\LwIP\sockets.o
 .text.lwip_close
                0x00000000       0x58 Middlewares\LwIP\sockets.o
 .text.lwip_listen
                0x00000000       0x98 Middlewares\LwIP\sockets.o
 .text.lwip_read
                0x00000000       0x2c Middlewares\LwIP\sockets.o
 .text.lwip_send
                0x00000000       0xc4 Middlewares\LwIP\sockets.o
 .text.lwip_sendto
                0x00000000      0x120 Middlewares\LwIP\sockets.o
 .text.lwip_write
                0x00000000       0x24 Middlewares\LwIP\sockets.o
 .text.lwip_selscan
                0x00000000      0x208 Middlewares\LwIP\sockets.o
 .text.lwip_select
                0x00000000      0x2f8 Middlewares\LwIP\sockets.o
 .text.lwip_shutdown
                0x00000000       0xd0 Middlewares\LwIP\sockets.o
 .text.lwip_getaddrname
                0x00000000       0x8c Middlewares\LwIP\sockets.o
 .text.lwip_getpeername
                0x00000000       0x24 Middlewares\LwIP\sockets.o
 .text.lwip_getsockname
                0x00000000       0x24 Middlewares\LwIP\sockets.o
 .text.lwip_getsockopt
                0x00000000      0x1a8 Middlewares\LwIP\sockets.o
 .text.lwip_getsockopt_internal
                0x00000000      0x1a4 Middlewares\LwIP\sockets.o
 .text.lwip_setsockopt
                0x00000000      0x180 Middlewares\LwIP\sockets.o
 .text.lwip_setsockopt_internal
                0x00000000      0x164 Middlewares\LwIP\sockets.o
 .text.lwip_ioctl
                0x00000000       0x8c Middlewares\LwIP\sockets.o
 .text.lwip_fcntl
                0x00000000       0xa0 Middlewares\LwIP\sockets.o
 .text          0x00000000        0x0 Middlewares\LwIP\slipif.o
 .data          0x00000000        0x0 Middlewares\LwIP\slipif.o
 .bss           0x00000000        0x0 Middlewares\LwIP\slipif.o
 .debug_info    0x00000000       0x99 Middlewares\LwIP\slipif.o
 .debug_abbrev  0x00000000       0x4b Middlewares\LwIP\slipif.o
 .debug_aranges
                0x00000000       0x18 Middlewares\LwIP\slipif.o
 .debug_line    0x00000000      0x12e Middlewares\LwIP\slipif.o
 .debug_str     0x00000000      0x1f2 Middlewares\LwIP\slipif.o
 .comment       0x00000000       0x83 Middlewares\LwIP\slipif.o
 .ARM.attributes
                0x00000000       0x39 Middlewares\LwIP\slipif.o
 .text          0x00000000        0x0 Middlewares\LwIP\raw.o
 .data          0x00000000        0x0 Middlewares\LwIP\raw.o
 .bss           0x00000000        0x0 Middlewares\LwIP\raw.o
 .text.raw_bind
                0x00000000       0x2c Middlewares\LwIP\raw.o
 .text.raw_sendto
                0x00000000       0xd0 Middlewares\LwIP\raw.o
 .text.raw_send
                0x00000000       0x24 Middlewares\LwIP\raw.o
 .text          0x00000000        0x0 Middlewares\LwIP\randm.o
 .data          0x00000000        0x0 Middlewares\LwIP\randm.o
 .bss           0x00000000        0x0 Middlewares\LwIP\randm.o
 .debug_info    0x00000000       0x99 Middlewares\LwIP\randm.o
 .debug_abbrev  0x00000000       0x4b Middlewares\LwIP\randm.o
 .debug_aranges
                0x00000000       0x18 Middlewares\LwIP\randm.o
 .debug_line    0x00000000      0x12e Middlewares\LwIP\randm.o
 .debug_str     0x00000000      0x1f5 Middlewares\LwIP\randm.o
 .comment       0x00000000       0x83 Middlewares\LwIP\randm.o
 .ARM.attributes
                0x00000000       0x39 Middlewares\LwIP\randm.o
 .text          0x00000000        0x0 Middlewares\LwIP\ppp_oe.o
 .data          0x00000000        0x0 Middlewares\LwIP\ppp_oe.o
 .bss           0x00000000        0x0 Middlewares\LwIP\ppp_oe.o
 .debug_info    0x00000000       0x99 Middlewares\LwIP\ppp_oe.o
 .debug_abbrev  0x00000000       0x4b Middlewares\LwIP\ppp_oe.o
 .debug_aranges
                0x00000000       0x18 Middlewares\LwIP\ppp_oe.o
 .debug_line    0x00000000      0x12e Middlewares\LwIP\ppp_oe.o
 .debug_str     0x00000000      0x1f6 Middlewares\LwIP\ppp_oe.o
 .comment       0x00000000       0x83 Middlewares\LwIP\ppp_oe.o
 .ARM.attributes
                0x00000000       0x39 Middlewares\LwIP\ppp_oe.o
 .text          0x00000000        0x0 Middlewares\LwIP\ppp.o
 .data          0x00000000        0x0 Middlewares\LwIP\ppp.o
 .bss           0x00000000        0x0 Middlewares\LwIP\ppp.o
 .debug_info    0x00000000       0x99 Middlewares\LwIP\ppp.o
 .debug_abbrev  0x00000000       0x4b Middlewares\LwIP\ppp.o
 .debug_aranges
                0x00000000       0x18 Middlewares\LwIP\ppp.o
 .debug_line    0x00000000      0x12e Middlewares\LwIP\ppp.o
 .debug_str     0x00000000      0x1f3 Middlewares\LwIP\ppp.o
 .comment       0x00000000       0x83 Middlewares\LwIP\ppp.o
 .ARM.attributes
                0x00000000       0x39 Middlewares\LwIP\ppp.o
 .text          0x00000000        0x0 Middlewares\LwIP\pbuf.o
 .data          0x00000000        0x0 Middlewares\LwIP\pbuf.o
 .bss           0x00000000        0x0 Middlewares\LwIP\pbuf.o
 .text.pbuf_dechain
                0x00000000       0x54 Middlewares\LwIP\pbuf.o
 .text.pbuf_take
                0x00000000       0x9c Middlewares\LwIP\pbuf.o
 .text.pbuf_coalesce
                0x00000000       0x50 Middlewares\LwIP\pbuf.o
 .text.pbuf_get_at
                0x00000000       0x60 Middlewares\LwIP\pbuf.o
 .text.pbuf_memcmp
                0x00000000       0x9c Middlewares\LwIP\pbuf.o
 .text.pbuf_memfind
                0x00000000       0x68 Middlewares\LwIP\pbuf.o
 .text.pbuf_strstr
                0x00000000       0x5c Middlewares\LwIP\pbuf.o
 .text          0x00000000        0x0 Middlewares\LwIP\pap.o
 .data          0x00000000        0x0 Middlewares\LwIP\pap.o
 .bss           0x00000000        0x0 Middlewares\LwIP\pap.o
 .debug_info    0x00000000       0x99 Middlewares\LwIP\pap.o
 .debug_abbrev  0x00000000       0x4b Middlewares\LwIP\pap.o
 .debug_aranges
                0x00000000       0x18 Middlewares\LwIP\pap.o
 .debug_line    0x00000000      0x12e Middlewares\LwIP\pap.o
 .debug_str     0x00000000      0x1f3 Middlewares\LwIP\pap.o
 .comment       0x00000000       0x83 Middlewares\LwIP\pap.o
 .ARM.attributes
                0x00000000       0x39 Middlewares\LwIP\pap.o
 .text          0x00000000        0x0 Middlewares\LwIP\netifapi.o
 .data          0x00000000        0x0 Middlewares\LwIP\netifapi.o
 .bss           0x00000000        0x0 Middlewares\LwIP\netifapi.o
 .debug_info    0x00000000       0x99 Middlewares\LwIP\netifapi.o
 .debug_abbrev  0x00000000       0x4b Middlewares\LwIP\netifapi.o
 .debug_aranges
                0x00000000       0x18 Middlewares\LwIP\netifapi.o
 .debug_line    0x00000000      0x12e Middlewares\LwIP\netifapi.o
 .debug_str     0x00000000      0x1f2 Middlewares\LwIP\netifapi.o
 .comment       0x00000000       0x83 Middlewares\LwIP\netifapi.o
 .ARM.attributes
                0x00000000       0x39 Middlewares\LwIP\netifapi.o
 .text          0x00000000        0x0 Middlewares\LwIP\netif.o
 .data          0x00000000        0x0 Middlewares\LwIP\netif.o
 .bss           0x00000000        0x0 Middlewares\LwIP\netif.o
 .text.netif_remove
                0x00000000       0x88 Middlewares\LwIP\netif.o
 .text.netif_find
                0x00000000       0x70 Middlewares\LwIP\netif.o
 .text.netif_set_link_up
                0x00000000       0x64 Middlewares\LwIP\netif.o
 .text.netif_set_link_down
                0x00000000       0x34 Middlewares\LwIP\netif.o
 .text          0x00000000        0x0 Middlewares\LwIP\netdb.o
 .data          0x00000000        0x0 Middlewares\LwIP\netdb.o
 .bss           0x00000000        0x0 Middlewares\LwIP\netdb.o
 .debug_info    0x00000000       0x99 Middlewares\LwIP\netdb.o
 .debug_abbrev  0x00000000       0x4b Middlewares\LwIP\netdb.o
 .debug_aranges
                0x00000000       0x18 Middlewares\LwIP\netdb.o
 .debug_line    0x00000000      0x12e Middlewares\LwIP\netdb.o
 .debug_str     0x00000000      0x1ef Middlewares\LwIP\netdb.o
 .comment       0x00000000       0x83 Middlewares\LwIP\netdb.o
 .ARM.attributes
                0x00000000       0x39 Middlewares\LwIP\netdb.o
 .text          0x00000000        0x0 Middlewares\LwIP\netbuf.o
 .data          0x00000000        0x0 Middlewares\LwIP\netbuf.o
 .bss           0x00000000        0x0 Middlewares\LwIP\netbuf.o
 .text.netbuf_new
                0x00000000       0x3c Middlewares\LwIP\netbuf.o
 .text.netbuf_alloc
                0x00000000       0x5c Middlewares\LwIP\netbuf.o
 .text.netbuf_free
                0x00000000       0x38 Middlewares\LwIP\netbuf.o
 .text.netbuf_ref
                0x00000000       0x78 Middlewares\LwIP\netbuf.o
 .text.netbuf_chain
                0x00000000       0x40 Middlewares\LwIP\netbuf.o
 .text.netbuf_data
                0x00000000       0x5c Middlewares\LwIP\netbuf.o
 .text.netbuf_next
                0x00000000       0x48 Middlewares\LwIP\netbuf.o
 .text.netbuf_first
                0x00000000       0x24 Middlewares\LwIP\netbuf.o
 .text          0x00000000        0x0 Middlewares\LwIP\msg_out.o
 .data          0x00000000        0x0 Middlewares\LwIP\msg_out.o
 .bss           0x00000000        0x0 Middlewares\LwIP\msg_out.o
 .debug_info    0x00000000       0x99 Middlewares\LwIP\msg_out.o
 .debug_abbrev  0x00000000       0x4b Middlewares\LwIP\msg_out.o
 .debug_aranges
                0x00000000       0x18 Middlewares\LwIP\msg_out.o
 .debug_line    0x00000000      0x12e Middlewares\LwIP\msg_out.o
 .debug_str     0x00000000      0x1f7 Middlewares\LwIP\msg_out.o
 .comment       0x00000000       0x83 Middlewares\LwIP\msg_out.o
 .ARM.attributes
                0x00000000       0x39 Middlewares\LwIP\msg_out.o
 .text          0x00000000        0x0 Middlewares\LwIP\msg_in.o
 .data          0x00000000        0x0 Middlewares\LwIP\msg_in.o
 .bss           0x00000000        0x0 Middlewares\LwIP\msg_in.o
 .debug_info    0x00000000       0x99 Middlewares\LwIP\msg_in.o
 .debug_abbrev  0x00000000       0x4b Middlewares\LwIP\msg_in.o
 .debug_aranges
                0x00000000       0x18 Middlewares\LwIP\msg_in.o
 .debug_line    0x00000000      0x12e Middlewares\LwIP\msg_in.o
 .debug_str     0x00000000      0x1f6 Middlewares\LwIP\msg_in.o
 .comment       0x00000000       0x83 Middlewares\LwIP\msg_in.o
 .ARM.attributes
                0x00000000       0x39 Middlewares\LwIP\msg_in.o
 .text          0x00000000        0x0 Middlewares\LwIP\mib_structs.o
 .data          0x00000000        0x0 Middlewares\LwIP\mib_structs.o
 .bss           0x00000000        0x0 Middlewares\LwIP\mib_structs.o
 .debug_info    0x00000000       0x99 Middlewares\LwIP\mib_structs.o
 .debug_abbrev  0x00000000       0x4b Middlewares\LwIP\mib_structs.o
 .debug_aranges
                0x00000000       0x18 Middlewares\LwIP\mib_structs.o
 .debug_line    0x00000000      0x12e Middlewares\LwIP\mib_structs.o
 .debug_str     0x00000000      0x1fb Middlewares\LwIP\mib_structs.o
 .comment       0x00000000       0x83 Middlewares\LwIP\mib_structs.o
 .ARM.attributes
                0x00000000       0x39 Middlewares\LwIP\mib_structs.o
 .text          0x00000000        0x0 Middlewares\LwIP\mib2.o
 .data          0x00000000        0x0 Middlewares\LwIP\mib2.o
 .bss           0x00000000        0x0 Middlewares\LwIP\mib2.o
 .debug_info    0x00000000       0x99 Middlewares\LwIP\mib2.o
 .debug_abbrev  0x00000000       0x4b Middlewares\LwIP\mib2.o
 .debug_aranges
                0x00000000       0x18 Middlewares\LwIP\mib2.o
 .debug_line    0x00000000      0x12e Middlewares\LwIP\mib2.o
 .debug_str     0x00000000      0x1f4 Middlewares\LwIP\mib2.o
 .comment       0x00000000       0x83 Middlewares\LwIP\mib2.o
 .ARM.attributes
                0x00000000       0x39 Middlewares\LwIP\mib2.o
 .text          0x00000000        0x0 Middlewares\LwIP\memp.o
 .data          0x00000000        0x0 Middlewares\LwIP\memp.o
 .bss           0x00000000        0x0 Middlewares\LwIP\memp.o
 .text          0x00000000        0x0 Middlewares\LwIP\mem.o
 .data          0x00000000        0x0 Middlewares\LwIP\mem.o
 .bss           0x00000000        0x0 Middlewares\LwIP\mem.o
 .text.mem_calloc
                0x00000000       0x44 Middlewares\LwIP\mem.o
 .text          0x00000000        0x0 Middlewares\LwIP\md5.o
 .data          0x00000000        0x0 Middlewares\LwIP\md5.o
 .bss           0x00000000        0x0 Middlewares\LwIP\md5.o
 .debug_info    0x00000000       0x99 Middlewares\LwIP\md5.o
 .debug_abbrev  0x00000000       0x4b Middlewares\LwIP\md5.o
 .debug_aranges
                0x00000000       0x18 Middlewares\LwIP\md5.o
 .debug_line    0x00000000      0x12e Middlewares\LwIP\md5.o
 .debug_str     0x00000000      0x1f3 Middlewares\LwIP\md5.o
 .comment       0x00000000       0x83 Middlewares\LwIP\md5.o
 .ARM.attributes
                0x00000000       0x39 Middlewares\LwIP\md5.o
 .text          0x00000000        0x0 Middlewares\LwIP\magic.o
 .data          0x00000000        0x0 Middlewares\LwIP\magic.o
 .bss           0x00000000        0x0 Middlewares\LwIP\magic.o
 .debug_info    0x00000000       0x99 Middlewares\LwIP\magic.o
 .debug_abbrev  0x00000000       0x4b Middlewares\LwIP\magic.o
 .debug_aranges
                0x00000000       0x18 Middlewares\LwIP\magic.o
 .debug_line    0x00000000      0x12e Middlewares\LwIP\magic.o
 .debug_str     0x00000000      0x1f5 Middlewares\LwIP\magic.o
 .comment       0x00000000       0x83 Middlewares\LwIP\magic.o
 .ARM.attributes
                0x00000000       0x39 Middlewares\LwIP\magic.o
 .text          0x00000000        0x0 Middlewares\LwIP\lwip_timers.o
 .data          0x00000000        0x0 Middlewares\LwIP\lwip_timers.o
 .bss           0x00000000        0x0 Middlewares\LwIP\lwip_timers.o
 .text          0x00000000        0x0 Middlewares\LwIP\lcp.o
 .data          0x00000000        0x0 Middlewares\LwIP\lcp.o
 .bss           0x00000000        0x0 Middlewares\LwIP\lcp.o
 .debug_info    0x00000000       0x99 Middlewares\LwIP\lcp.o
 .debug_abbrev  0x00000000       0x4b Middlewares\LwIP\lcp.o
 .debug_aranges
                0x00000000       0x18 Middlewares\LwIP\lcp.o
 .debug_line    0x00000000      0x12e Middlewares\LwIP\lcp.o
 .debug_str     0x00000000      0x1f3 Middlewares\LwIP\lcp.o
 .comment       0x00000000       0x83 Middlewares\LwIP\lcp.o
 .ARM.attributes
                0x00000000       0x39 Middlewares\LwIP\lcp.o
 .text          0x00000000        0x0 Middlewares\LwIP\ipcp.o
 .data          0x00000000        0x0 Middlewares\LwIP\ipcp.o
 .bss           0x00000000        0x0 Middlewares\LwIP\ipcp.o
 .debug_info    0x00000000       0x99 Middlewares\LwIP\ipcp.o
 .debug_abbrev  0x00000000       0x4b Middlewares\LwIP\ipcp.o
 .debug_aranges
                0x00000000       0x18 Middlewares\LwIP\ipcp.o
 .debug_line    0x00000000      0x12e Middlewares\LwIP\ipcp.o
 .debug_str     0x00000000      0x1f4 Middlewares\LwIP\ipcp.o
 .comment       0x00000000       0x83 Middlewares\LwIP\ipcp.o
 .ARM.attributes
                0x00000000       0x39 Middlewares\LwIP\ipcp.o
 .text          0x00000000        0x0 Middlewares\LwIP\ip_frag.o
 .data          0x00000000        0x0 Middlewares\LwIP\ip_frag.o
 .bss           0x00000000        0x0 Middlewares\LwIP\ip_frag.o
 .text          0x00000000        0x0 Middlewares\LwIP\ip_addr.o
 .data          0x00000000        0x0 Middlewares\LwIP\ip_addr.o
 .bss           0x00000000        0x0 Middlewares\LwIP\ip_addr.o
 .text.ip4_addr_netmask_valid
                0x00000000       0x58 Middlewares\LwIP\ip_addr.o
 .text.ipaddr_addr
                0x00000000       0x2c Middlewares\LwIP\ip_addr.o
 .text.ipaddr_aton
                0x00000000      0x234 Middlewares\LwIP\ip_addr.o
 .text.ipaddr_ntoa
                0x00000000       0x20 Middlewares\LwIP\ip_addr.o
 .text.ipaddr_ntoa_r
                0x00000000      0x100 Middlewares\LwIP\ip_addr.o
 .bss.str.7201  0x00000000       0x10 Middlewares\LwIP\ip_addr.o
 .text          0x00000000        0x0 Middlewares\LwIP\ip.o
 .data          0x00000000        0x0 Middlewares\LwIP\ip.o
 .bss           0x00000000        0x0 Middlewares\LwIP\ip.o
 .text          0x00000000        0x0 Middlewares\LwIP\init.o
 .data          0x00000000        0x0 Middlewares\LwIP\init.o
 .bss           0x00000000        0x0 Middlewares\LwIP\init.o
 .text          0x00000000        0x0 Middlewares\LwIP\inet_chksum.o
 .data          0x00000000        0x0 Middlewares\LwIP\inet_chksum.o
 .bss           0x00000000        0x0 Middlewares\LwIP\inet_chksum.o
 .text.inet_chksum_pseudo
                0x00000000      0x10c Middlewares\LwIP\inet_chksum.o
 .text.inet_chksum_pseudo_partial
                0x00000000      0x128 Middlewares\LwIP\inet_chksum.o
 .text          0x00000000        0x0 Middlewares\LwIP\inet.o
 .data          0x00000000        0x0 Middlewares\LwIP\inet.o
 .bss           0x00000000        0x0 Middlewares\LwIP\inet.o
 .debug_info    0x00000000       0x99 Middlewares\LwIP\inet.o
 .debug_abbrev  0x00000000       0x4b Middlewares\LwIP\inet.o
 .debug_aranges
                0x00000000       0x18 Middlewares\LwIP\inet.o
 .debug_line    0x00000000      0x12e Middlewares\LwIP\inet.o
 .debug_str     0x00000000      0x1f4 Middlewares\LwIP\inet.o
 .comment       0x00000000       0x83 Middlewares\LwIP\inet.o
 .ARM.attributes
                0x00000000       0x39 Middlewares\LwIP\inet.o
 .text          0x00000000        0x0 Middlewares\LwIP\igmp.o
 .data          0x00000000        0x0 Middlewares\LwIP\igmp.o
 .bss           0x00000000        0x0 Middlewares\LwIP\igmp.o
 .debug_info    0x00000000       0x99 Middlewares\LwIP\igmp.o
 .debug_abbrev  0x00000000       0x4b Middlewares\LwIP\igmp.o
 .debug_aranges
                0x00000000       0x18 Middlewares\LwIP\igmp.o
 .debug_line    0x00000000      0x12e Middlewares\LwIP\igmp.o
 .debug_str     0x00000000      0x1f4 Middlewares\LwIP\igmp.o
 .comment       0x00000000       0x83 Middlewares\LwIP\igmp.o
 .ARM.attributes
                0x00000000       0x39 Middlewares\LwIP\igmp.o
 .text          0x00000000        0x0 Middlewares\LwIP\icmp.o
 .data          0x00000000        0x0 Middlewares\LwIP\icmp.o
 .bss           0x00000000        0x0 Middlewares\LwIP\icmp.o
 .text          0x00000000        0x0 Middlewares\LwIP\fsm.o
 .data          0x00000000        0x0 Middlewares\LwIP\fsm.o
 .bss           0x00000000        0x0 Middlewares\LwIP\fsm.o
 .debug_info    0x00000000       0x99 Middlewares\LwIP\fsm.o
 .debug_abbrev  0x00000000       0x4b Middlewares\LwIP\fsm.o
 .debug_aranges
                0x00000000       0x18 Middlewares\LwIP\fsm.o
 .debug_line    0x00000000      0x12e Middlewares\LwIP\fsm.o
 .debug_str     0x00000000      0x1f3 Middlewares\LwIP\fsm.o
 .comment       0x00000000       0x83 Middlewares\LwIP\fsm.o
 .ARM.attributes
                0x00000000       0x39 Middlewares\LwIP\fsm.o
 .text          0x00000000        0x0 Middlewares\LwIP\etharp.o
 .data          0x00000000        0x0 Middlewares\LwIP\etharp.o
 .bss           0x00000000        0x0 Middlewares\LwIP\etharp.o
 .text.etharp_find_addr
                0x00000000       0x80 Middlewares\LwIP\etharp.o
 .text          0x00000000        0x0 Middlewares\LwIP\err.o
 .data          0x00000000        0x0 Middlewares\LwIP\err.o
 .bss           0x00000000        0x0 Middlewares\LwIP\err.o
 .debug_info    0x00000000       0x99 Middlewares\LwIP\err.o
 .debug_abbrev  0x00000000       0x4b Middlewares\LwIP\err.o
 .debug_aranges
                0x00000000       0x18 Middlewares\LwIP\err.o
 .debug_line    0x00000000      0x12e Middlewares\LwIP\err.o
 .debug_str     0x00000000      0x1ed Middlewares\LwIP\err.o
 .comment       0x00000000       0x83 Middlewares\LwIP\err.o
 .ARM.attributes
                0x00000000       0x39 Middlewares\LwIP\err.o
 .text          0x00000000        0x0 Middlewares\LwIP\dns.o
 .data          0x00000000        0x0 Middlewares\LwIP\dns.o
 .bss           0x00000000        0x0 Middlewares\LwIP\dns.o
 .debug_info    0x00000000       0x99 Middlewares\LwIP\dns.o
 .debug_abbrev  0x00000000       0x4b Middlewares\LwIP\dns.o
 .debug_aranges
                0x00000000       0x18 Middlewares\LwIP\dns.o
 .debug_line    0x00000000      0x12e Middlewares\LwIP\dns.o
 .debug_str     0x00000000      0x1ee Middlewares\LwIP\dns.o
 .comment       0x00000000       0x83 Middlewares\LwIP\dns.o
 .ARM.attributes
                0x00000000       0x39 Middlewares\LwIP\dns.o
 .text          0x00000000        0x0 Middlewares\LwIP\dhcp.o
 .data          0x00000000        0x0 Middlewares\LwIP\dhcp.o
 .bss           0x00000000        0x0 Middlewares\LwIP\dhcp.o
 .text.dhcp_set_struct
                0x00000000       0x20 Middlewares\LwIP\dhcp.o
 .text.dhcp_cleanup
                0x00000000       0x28 Middlewares\LwIP\dhcp.o
 .text.dhcp_inform
                0x00000000      0x104 Middlewares\LwIP\dhcp.o
 .text.dhcp_network_changed
                0x00000000       0x7c Middlewares\LwIP\dhcp.o
 .text          0x00000000        0x0 Middlewares\LwIP\def.o
 .data          0x00000000        0x0 Middlewares\LwIP\def.o
 .bss           0x00000000        0x0 Middlewares\LwIP\def.o
 .text          0x00000000        0x0 Middlewares\LwIP\chpms.o
 .data          0x00000000        0x0 Middlewares\LwIP\chpms.o
 .bss           0x00000000        0x0 Middlewares\LwIP\chpms.o
 .debug_info    0x00000000       0x99 Middlewares\LwIP\chpms.o
 .debug_abbrev  0x00000000       0x4b Middlewares\LwIP\chpms.o
 .debug_aranges
                0x00000000       0x18 Middlewares\LwIP\chpms.o
 .debug_line    0x00000000      0x12e Middlewares\LwIP\chpms.o
 .debug_str     0x00000000      0x1f5 Middlewares\LwIP\chpms.o
 .comment       0x00000000       0x83 Middlewares\LwIP\chpms.o
 .ARM.attributes
                0x00000000       0x39 Middlewares\LwIP\chpms.o
 .text          0x00000000        0x0 Middlewares\LwIP\chap.o
 .data          0x00000000        0x0 Middlewares\LwIP\chap.o
 .bss           0x00000000        0x0 Middlewares\LwIP\chap.o
 .debug_info    0x00000000       0x99 Middlewares\LwIP\chap.o
 .debug_abbrev  0x00000000       0x4b Middlewares\LwIP\chap.o
 .debug_aranges
                0x00000000       0x18 Middlewares\LwIP\chap.o
 .debug_line    0x00000000      0x12e Middlewares\LwIP\chap.o
 .debug_str     0x00000000      0x1f4 Middlewares\LwIP\chap.o
 .comment       0x00000000       0x83 Middlewares\LwIP\chap.o
 .ARM.attributes
                0x00000000       0x39 Middlewares\LwIP\chap.o
 .text          0x00000000        0x0 Middlewares\LwIP\autoip.o
 .data          0x00000000        0x0 Middlewares\LwIP\autoip.o
 .bss           0x00000000        0x0 Middlewares\LwIP\autoip.o
 .debug_info    0x00000000       0x99 Middlewares\LwIP\autoip.o
 .debug_abbrev  0x00000000       0x4b Middlewares\LwIP\autoip.o
 .debug_aranges
                0x00000000       0x18 Middlewares\LwIP\autoip.o
 .debug_line    0x00000000      0x12e Middlewares\LwIP\autoip.o
 .debug_str     0x00000000      0x1f6 Middlewares\LwIP\autoip.o
 .comment       0x00000000       0x83 Middlewares\LwIP\autoip.o
 .ARM.attributes
                0x00000000       0x39 Middlewares\LwIP\autoip.o
 .text          0x00000000        0x0 Middlewares\LwIP\auth.o
 .data          0x00000000        0x0 Middlewares\LwIP\auth.o
 .bss           0x00000000        0x0 Middlewares\LwIP\auth.o
 .debug_info    0x00000000       0x99 Middlewares\LwIP\auth.o
 .debug_abbrev  0x00000000       0x4b Middlewares\LwIP\auth.o
 .debug_aranges
                0x00000000       0x18 Middlewares\LwIP\auth.o
 .debug_line    0x00000000      0x12e Middlewares\LwIP\auth.o
 .debug_str     0x00000000      0x1f4 Middlewares\LwIP\auth.o
 .comment       0x00000000       0x83 Middlewares\LwIP\auth.o
 .ARM.attributes
                0x00000000       0x39 Middlewares\LwIP\auth.o
 .text          0x00000000        0x0 Middlewares\LwIP\asn1_enc.o
 .data          0x00000000        0x0 Middlewares\LwIP\asn1_enc.o
 .bss           0x00000000        0x0 Middlewares\LwIP\asn1_enc.o
 .debug_info    0x00000000       0x99 Middlewares\LwIP\asn1_enc.o
 .debug_abbrev  0x00000000       0x4b Middlewares\LwIP\asn1_enc.o
 .debug_aranges
                0x00000000       0x18 Middlewares\LwIP\asn1_enc.o
 .debug_line    0x00000000      0x12e Middlewares\LwIP\asn1_enc.o
 .debug_str     0x00000000      0x1f8 Middlewares\LwIP\asn1_enc.o
 .comment       0x00000000       0x83 Middlewares\LwIP\asn1_enc.o
 .ARM.attributes
                0x00000000       0x39 Middlewares\LwIP\asn1_enc.o
 .text          0x00000000        0x0 Middlewares\LwIP\asn1_dec.o
 .data          0x00000000        0x0 Middlewares\LwIP\asn1_dec.o
 .bss           0x00000000        0x0 Middlewares\LwIP\asn1_dec.o
 .debug_info    0x00000000       0x99 Middlewares\LwIP\asn1_dec.o
 .debug_abbrev  0x00000000       0x4b Middlewares\LwIP\asn1_dec.o
 .debug_aranges
                0x00000000       0x18 Middlewares\LwIP\asn1_dec.o
 .debug_line    0x00000000      0x12e Middlewares\LwIP\asn1_dec.o
 .debug_str     0x00000000      0x1f8 Middlewares\LwIP\asn1_dec.o
 .comment       0x00000000       0x83 Middlewares\LwIP\asn1_dec.o
 .ARM.attributes
                0x00000000       0x39 Middlewares\LwIP\asn1_dec.o
 .text          0x00000000        0x0 Middlewares\LwIP\api_msg.o
 .data          0x00000000        0x0 Middlewares\LwIP\api_msg.o
 .bss           0x00000000        0x0 Middlewares\LwIP\api_msg.o
 .text.accept_function
                0x00000000       0xdc Middlewares\LwIP\api_msg.o
 .text.do_bind  0x00000000       0xbc Middlewares\LwIP\api_msg.o
 .text.do_listen
                0x00000000      0x124 Middlewares\LwIP\api_msg.o
 .text.do_send  0x00000000      0x10c Middlewares\LwIP\api_msg.o
 .text.do_write
                0x00000000       0x94 Middlewares\LwIP\api_msg.o
 .text.do_close
                0x00000000       0xa4 Middlewares\LwIP\api_msg.o
 .text          0x00000000        0x0 Middlewares\LwIP\api_lib.o
 .data          0x00000000        0x0 Middlewares\LwIP\api_lib.o
 .bss           0x00000000        0x0 Middlewares\LwIP\api_lib.o
 .text.netconn_bind
                0x00000000       0x60 Middlewares\LwIP\api_lib.o
 .text.netconn_listen_with_backlog
                0x00000000       0x54 Middlewares\LwIP\api_lib.o
 .text.netconn_accept
                0x00000000       0xa4 Middlewares\LwIP\api_lib.o
 .text.netconn_sendto
                0x00000000       0x44 Middlewares\LwIP\api_lib.o
 .text.netconn_send
                0x00000000       0x58 Middlewares\LwIP\api_lib.o
 .text.netconn_write_partly
                0x00000000       0xd0 Middlewares\LwIP\api_lib.o
 .text.netconn_close_shutdown
                0x00000000       0x58 Middlewares\LwIP\api_lib.o
 .text.netconn_close
                0x00000000       0x1c Middlewares\LwIP\api_lib.o
 .text.netconn_shutdown
                0x00000000       0x44 Middlewares\LwIP\api_lib.o
 .text          0x00000000        0x0 Middlewares\FreeRTOS\timers.o
 .data          0x00000000        0x0 Middlewares\FreeRTOS\timers.o
 .bss           0x00000000        0x0 Middlewares\FreeRTOS\timers.o
 .debug_info    0x00000000       0x72 Middlewares\FreeRTOS\timers.o
 .debug_abbrev  0x00000000       0x26 Middlewares\FreeRTOS\timers.o
 .debug_aranges
                0x00000000       0x18 Middlewares\FreeRTOS\timers.o
 .debug_line    0x00000000       0x1d Middlewares\FreeRTOS\timers.o
 .debug_str     0x00000000      0x1d4 Middlewares\FreeRTOS\timers.o
 .comment       0x00000000       0x83 Middlewares\FreeRTOS\timers.o
 .ARM.attributes
                0x00000000       0x39 Middlewares\FreeRTOS\timers.o
 .text          0x00000000        0x0 Middlewares\FreeRTOS\tasks.o
 .data          0x00000000        0x0 Middlewares\FreeRTOS\tasks.o
 .bss           0x00000000        0x0 Middlewares\FreeRTOS\tasks.o
 .text.vTaskDelete
                0x00000000      0x104 Middlewares\FreeRTOS\tasks.o
 .text.vTaskDelay
                0x00000000       0xa4 Middlewares\FreeRTOS\tasks.o
 .text.uxTaskPriorityGet
                0x00000000       0x34 Middlewares\FreeRTOS\tasks.o
 .text.uxTaskPriorityGetFromISR
                0x00000000       0x58 Middlewares\FreeRTOS\tasks.o
 .text.vTaskPrioritySet
                0x00000000      0x158 Middlewares\FreeRTOS\tasks.o
 .text.vTaskSuspend
                0x00000000      0x110 Middlewares\FreeRTOS\tasks.o
 .text.prvTaskIsTaskSuspended
                0x00000000       0x74 Middlewares\FreeRTOS\tasks.o
 .text.vTaskResume
                0x00000000       0xb8 Middlewares\FreeRTOS\tasks.o
 .text.xTaskResumeFromISR
                0x00000000       0xe0 Middlewares\FreeRTOS\tasks.o
 .text.vTaskEndScheduler
                0x00000000       0x2c Middlewares\FreeRTOS\tasks.o
 .text.xTaskGetTickCountFromISR
                0x00000000       0x24 Middlewares\FreeRTOS\tasks.o
 .text.uxTaskGetNumberOfTasks
                0x00000000       0x18 Middlewares\FreeRTOS\tasks.o
 .text.uxTaskGetSystemState
                0x00000000       0xf8 Middlewares\FreeRTOS\tasks.o
 .text.vTaskPlaceOnUnorderedEventList
                0x00000000       0xc8 Middlewares\FreeRTOS\tasks.o
 .text.xTaskRemoveFromUnorderedEventList
                0x00000000       0xcc Middlewares\FreeRTOS\tasks.o
 .text.uxTaskGetTaskNumber
                0x00000000       0x2c Middlewares\FreeRTOS\tasks.o
 .text.vTaskSetTaskNumber
                0x00000000       0x24 Middlewares\FreeRTOS\tasks.o
 .text.prvListTaskWithinSingleList
                0x00000000      0x118 Middlewares\FreeRTOS\tasks.o
 .text.prvTaskCheckFreeStackSpace
                0x00000000       0x38 Middlewares\FreeRTOS\tasks.o
 .text.xTaskGetCurrentTaskHandle
                0x00000000       0x20 Middlewares\FreeRTOS\tasks.o
 .text.uxTaskResetEventItemValue
                0x00000000       0x30 Middlewares\FreeRTOS\tasks.o
 .text.ulTaskNotifyTake
                0x00000000       0xe8 Middlewares\FreeRTOS\tasks.o
 .text.xTaskNotifyWait
                0x00000000      0x10c Middlewares\FreeRTOS\tasks.o
 .text.xTaskGenericNotify
                0x00000000      0x140 Middlewares\FreeRTOS\tasks.o
 .text.xTaskNotifyFromISR
                0x00000000      0x170 Middlewares\FreeRTOS\tasks.o
 .text.vTaskNotifyGiveFromISR
                0x00000000      0x110 Middlewares\FreeRTOS\tasks.o
 .text          0x00000000        0x0 Middlewares\FreeRTOS\queue.o
 .data          0x00000000        0x0 Middlewares\FreeRTOS\queue.o
 .bss           0x00000000        0x0 Middlewares\FreeRTOS\queue.o
 .text.xQueueGiveMutexRecursive
                0x00000000       0x68 Middlewares\FreeRTOS\queue.o
 .text.xQueueTakeMutexRecursive
                0x00000000       0x70 Middlewares\FreeRTOS\queue.o
 .text.xQueueGenericSendFromISR
                0x00000000      0x118 Middlewares\FreeRTOS\queue.o
 .text.xQueuePeekFromISR
                0x00000000       0xcc Middlewares\FreeRTOS\queue.o
 .text.uxQueueSpacesAvailable
                0x00000000       0x44 Middlewares\FreeRTOS\queue.o
 .text.uxQueueMessagesWaitingFromISR
                0x00000000       0x38 Middlewares\FreeRTOS\queue.o
 .text.uxQueueGetQueueNumber
                0x00000000       0x18 Middlewares\FreeRTOS\queue.o
 .text.vQueueSetQueueNumber
                0x00000000       0x1c Middlewares\FreeRTOS\queue.o
 .text.ucQueueGetQueueType
                0x00000000       0x1c Middlewares\FreeRTOS\queue.o
 .text.xQueueIsQueueEmptyFromISR
                0x00000000       0x44 Middlewares\FreeRTOS\queue.o
 .text.xQueueIsQueueFullFromISR
                0x00000000       0x48 Middlewares\FreeRTOS\queue.o
 .text.vQueueAddToRegistry
                0x00000000       0x50 Middlewares\FreeRTOS\queue.o
 .text          0x00000000        0x0 Middlewares\FreeRTOS\port.o
 .data          0x00000000        0x0 Middlewares\FreeRTOS\port.o
 .bss           0x00000000        0x0 Middlewares\FreeRTOS\port.o
 .rodata.pcInterruptPriorityRegisters
                0x00000000        0x4 Middlewares\FreeRTOS\port.o
 .text.vPortEndScheduler
                0x00000000       0x34 Middlewares\FreeRTOS\port.o
 .text          0x00000000        0x0 Middlewares\FreeRTOS\list.o
 .data          0x00000000        0x0 Middlewares\FreeRTOS\list.o
 .bss           0x00000000        0x0 Middlewares\FreeRTOS\list.o
 .text          0x00000000        0x0 Middlewares\FreeRTOS\heap_4.o
 .data          0x00000000        0x0 Middlewares\FreeRTOS\heap_4.o
 .bss           0x00000000        0x0 Middlewares\FreeRTOS\heap_4.o
 .rodata.xHeapStructSize
                0x00000000        0x4 Middlewares\FreeRTOS\heap_4.o
 .text.xPortGetFreeHeapSize
                0x00000000       0x18 Middlewares\FreeRTOS\heap_4.o
 .text.xPortGetMinimumEverFreeHeapSize
                0x00000000       0x18 Middlewares\FreeRTOS\heap_4.o
 .text.vPortInitialiseBlocks
                0x00000000        0xc Middlewares\FreeRTOS\heap_4.o
 .text          0x00000000        0x0 Middlewares\FreeRTOS\event_groups.o
 .data          0x00000000        0x0 Middlewares\FreeRTOS\event_groups.o
 .bss           0x00000000        0x0 Middlewares\FreeRTOS\event_groups.o
 .text.xEventGroupCreate
                0x00000000       0x30 Middlewares\FreeRTOS\event_groups.o
 .text.xEventGroupSync
                0x00000000      0x154 Middlewares\FreeRTOS\event_groups.o
 .text.xEventGroupWaitBits
                0x00000000      0x194 Middlewares\FreeRTOS\event_groups.o
 .text.xEventGroupClearBits
                0x00000000       0x6c Middlewares\FreeRTOS\event_groups.o
 .text.xEventGroupGetBitsFromISR
                0x00000000       0x48 Middlewares\FreeRTOS\event_groups.o
 .text.xEventGroupSetBits
                0x00000000      0x114 Middlewares\FreeRTOS\event_groups.o
 .text.vEventGroupDelete
                0x00000000       0x60 Middlewares\FreeRTOS\event_groups.o
 .text.vEventGroupSetBitsCallback
                0x00000000       0x18 Middlewares\FreeRTOS\event_groups.o
 .text.vEventGroupClearBitsCallback
                0x00000000       0x18 Middlewares\FreeRTOS\event_groups.o
 .text.prvTestWaitCondition
                0x00000000       0x44 Middlewares\FreeRTOS\event_groups.o
 .text.uxEventGroupGetNumber
                0x00000000       0x2c Middlewares\FreeRTOS\event_groups.o
 .debug_info    0x00000000      0x8c0 Middlewares\FreeRTOS\event_groups.o
 .debug_abbrev  0x00000000      0x1e3 Middlewares\FreeRTOS\event_groups.o
 .debug_aranges
                0x00000000       0x70 Middlewares\FreeRTOS\event_groups.o
 .debug_ranges  0x00000000       0x60 Middlewares\FreeRTOS\event_groups.o
 .debug_line    0x00000000      0x48d Middlewares\FreeRTOS\event_groups.o
 .debug_str     0x00000000      0x5da Middlewares\FreeRTOS\event_groups.o
 .comment       0x00000000       0x83 Middlewares\FreeRTOS\event_groups.o
 .ARM.attributes
                0x00000000       0x39 Middlewares\FreeRTOS\event_groups.o
 .debug_frame   0x00000000      0x164 Middlewares\FreeRTOS\event_groups.o
 .text          0x00000000        0x0 Middlewares\FreeRTOS\croutine.o
 .data          0x00000000        0x0 Middlewares\FreeRTOS\croutine.o
 .bss           0x00000000        0x0 Middlewares\FreeRTOS\croutine.o
 .debug_info    0x00000000       0x72 Middlewares\FreeRTOS\croutine.o
 .debug_abbrev  0x00000000       0x26 Middlewares\FreeRTOS\croutine.o
 .debug_aranges
                0x00000000       0x18 Middlewares\FreeRTOS\croutine.o
 .debug_line    0x00000000       0x1d Middlewares\FreeRTOS\croutine.o
 .debug_str     0x00000000      0x1d6 Middlewares\FreeRTOS\croutine.o
 .comment       0x00000000       0x83 Middlewares\FreeRTOS\croutine.o
 .ARM.attributes
                0x00000000       0x39 Middlewares\FreeRTOS\croutine.o
 .text          0x00000000        0x0 Middlewares\FreeRTOS\cmsis_os.o
 .data          0x00000000        0x0 Middlewares\FreeRTOS\cmsis_os.o
 .bss           0x00000000        0x0 Middlewares\FreeRTOS\cmsis_os.o
 .text.makeCmsisPriority
                0x00000000       0x2c Middlewares\FreeRTOS\cmsis_os.o
 .text.osKernelRunning
                0x00000000       0x18 Middlewares\FreeRTOS\cmsis_os.o
 .text.osKernelSysTick
                0x00000000       0x20 Middlewares\FreeRTOS\cmsis_os.o
 .text.osThreadGetId
                0x00000000       0x10 Middlewares\FreeRTOS\cmsis_os.o
 .text.osThreadTerminate
                0x00000000       0x18 Middlewares\FreeRTOS\cmsis_os.o
 .text.osThreadYield
                0x00000000       0x24 Middlewares\FreeRTOS\cmsis_os.o
 .text.osThreadSetPriority
                0x00000000       0x2c Middlewares\FreeRTOS\cmsis_os.o
 .text.osThreadGetPriority
                0x00000000       0x40 Middlewares\FreeRTOS\cmsis_os.o
 .text.osDelay  0x00000000       0x28 Middlewares\FreeRTOS\cmsis_os.o
 .text.osTimerCreate
                0x00000000       0x1c Middlewares\FreeRTOS\cmsis_os.o
 .text.osTimerStart
                0x00000000       0x20 Middlewares\FreeRTOS\cmsis_os.o
 .text.osTimerStop
                0x00000000       0x20 Middlewares\FreeRTOS\cmsis_os.o
 .text.osTimerDelete
                0x00000000       0x20 Middlewares\FreeRTOS\cmsis_os.o
 .text.osSignalSet
                0x00000000       0x70 Middlewares\FreeRTOS\cmsis_os.o
 .text.osSignalWait
                0x00000000       0x98 Middlewares\FreeRTOS\cmsis_os.o
 .text.osMutexCreate
                0x00000000       0x18 Middlewares\FreeRTOS\cmsis_os.o
 .text.osMutexWait
                0x00000000       0xa0 Middlewares\FreeRTOS\cmsis_os.o
 .text.osMutexRelease
                0x00000000       0x6c Middlewares\FreeRTOS\cmsis_os.o
 .text.osMutexDelete
                0x00000000       0x28 Middlewares\FreeRTOS\cmsis_os.o
 .text.osSemaphoreDelete
                0x00000000       0x28 Middlewares\FreeRTOS\cmsis_os.o
 .text.osPoolCreate
                0x00000000       0xbc Middlewares\FreeRTOS\cmsis_os.o
 .text.osPoolAlloc
                0x00000000       0xc4 Middlewares\FreeRTOS\cmsis_os.o
 .text.osPoolCAlloc
                0x00000000       0x2c Middlewares\FreeRTOS\cmsis_os.o
 .text.osPoolFree
                0x00000000       0x84 Middlewares\FreeRTOS\cmsis_os.o
 .text.osMessageCreate
                0x00000000       0x28 Middlewares\FreeRTOS\cmsis_os.o
 .text.osMessagePut
                0x00000000       0x88 Middlewares\FreeRTOS\cmsis_os.o
 .text.osMessageGet
                0x00000000       0xe4 Middlewares\FreeRTOS\cmsis_os.o
 .text.osMailCreate
                0x00000000       0xc4 Middlewares\FreeRTOS\cmsis_os.o
 .text.osMailAlloc
                0x00000000       0x2c Middlewares\FreeRTOS\cmsis_os.o
 .text.osMailCAlloc
                0x00000000       0x40 Middlewares\FreeRTOS\cmsis_os.o
 .text.osMailPut
                0x00000000       0x84 Middlewares\FreeRTOS\cmsis_os.o
 .text.osMailGet
                0x00000000       0xe8 Middlewares\FreeRTOS\cmsis_os.o
 .text.osMailFree
                0x00000000       0x2c Middlewares\FreeRTOS\cmsis_os.o
 .text.osThreadSuspend
                0x00000000       0x18 Middlewares\FreeRTOS\cmsis_os.o
 .text.osThreadResume
                0x00000000       0x44 Middlewares\FreeRTOS\cmsis_os.o
 .text.osThreadSuspendAll
                0x00000000       0x10 Middlewares\FreeRTOS\cmsis_os.o
 .text.osThreadResumeAll
                0x00000000       0x18 Middlewares\FreeRTOS\cmsis_os.o
 .text.osDelayUntil
                0x00000000       0x18 Middlewares\FreeRTOS\cmsis_os.o
 .text.osThreadList
                0x00000000       0x18 Middlewares\FreeRTOS\cmsis_os.o
 .text.osMessagePeek
                0x00000000       0x90 Middlewares\FreeRTOS\cmsis_os.o
 .text.osRecursiveMutexCreate
                0x00000000       0x18 Middlewares\FreeRTOS\cmsis_os.o
 .text.osRecursiveMutexRelease
                0x00000000       0x28 Middlewares\FreeRTOS\cmsis_os.o
 .text.osRecursiveMutexWait
                0x00000000       0x58 Middlewares\FreeRTOS\cmsis_os.o
 .text          0x00000000        0x0 Drivers\STM32F4xx_HAL_Driver\stm32f4xx_hal_rcc_ex.o
 .data          0x00000000        0x0 Drivers\STM32F4xx_HAL_Driver\stm32f4xx_hal_rcc_ex.o
 .bss           0x00000000        0x0 Drivers\STM32F4xx_HAL_Driver\stm32f4xx_hal_rcc_ex.o
 .text.HAL_RCC_DeInit
                0x00000000       0x78 Drivers\STM32F4xx_HAL_Driver\stm32f4xx_hal_rcc_ex.o
 .text.HAL_RCCEx_PeriphCLKConfig
                0x00000000      0x1cc Drivers\STM32F4xx_HAL_Driver\stm32f4xx_hal_rcc_ex.o
 .text.HAL_RCCEx_GetPeriphCLKConfig
                0x00000000       0x84 Drivers\STM32F4xx_HAL_Driver\stm32f4xx_hal_rcc_ex.o
 .debug_info    0x00000000      0x4fe Drivers\STM32F4xx_HAL_Driver\stm32f4xx_hal_rcc_ex.o
 .debug_abbrev  0x00000000      0x195 Drivers\STM32F4xx_HAL_Driver\stm32f4xx_hal_rcc_ex.o
 .debug_aranges
                0x00000000       0x30 Drivers\STM32F4xx_HAL_Driver\stm32f4xx_hal_rcc_ex.o
 .debug_ranges  0x00000000       0x20 Drivers\STM32F4xx_HAL_Driver\stm32f4xx_hal_rcc_ex.o
 .debug_line    0x00000000      0x2fd Drivers\STM32F4xx_HAL_Driver\stm32f4xx_hal_rcc_ex.o
 .debug_str     0x00000000      0x46b Drivers\STM32F4xx_HAL_Driver\stm32f4xx_hal_rcc_ex.o
 .comment       0x00000000       0x83 Drivers\STM32F4xx_HAL_Driver\stm32f4xx_hal_rcc_ex.o
 .ARM.attributes
                0x00000000       0x39 Drivers\STM32F4xx_HAL_Driver\stm32f4xx_hal_rcc_ex.o
 .debug_frame   0x00000000       0x64 Drivers\STM32F4xx_HAL_Driver\stm32f4xx_hal_rcc_ex.o
 .text          0x00000000        0x0 Drivers\STM32F4xx_HAL_Driver\stm32f4xx_hal_rcc.o
 .data          0x00000000        0x0 Drivers\STM32F4xx_HAL_Driver\stm32f4xx_hal_rcc.o
 .bss           0x00000000        0x0 Drivers\STM32F4xx_HAL_Driver\stm32f4xx_hal_rcc.o
 .text.HAL_RCC_DeInit
                0x00000000        0xc Drivers\STM32F4xx_HAL_Driver\stm32f4xx_hal_rcc.o
 .text.HAL_RCC_MCOConfig
                0x00000000       0xc4 Drivers\STM32F4xx_HAL_Driver\stm32f4xx_hal_rcc.o
 .text.HAL_RCC_EnableCSS
                0x00000000       0x18 Drivers\STM32F4xx_HAL_Driver\stm32f4xx_hal_rcc.o
 .text.HAL_RCC_DisableCSS
                0x00000000       0x18 Drivers\STM32F4xx_HAL_Driver\stm32f4xx_hal_rcc.o
 .text.HAL_RCC_GetPCLK1Freq
                0x00000000       0x44 Drivers\STM32F4xx_HAL_Driver\stm32f4xx_hal_rcc.o
 .text.HAL_RCC_GetPCLK2Freq
                0x00000000       0x44 Drivers\STM32F4xx_HAL_Driver\stm32f4xx_hal_rcc.o
 .text.HAL_RCC_GetOscConfig
                0x00000000      0x170 Drivers\STM32F4xx_HAL_Driver\stm32f4xx_hal_rcc.o
 .text.HAL_RCC_GetClockConfig
                0x00000000       0x60 Drivers\STM32F4xx_HAL_Driver\stm32f4xx_hal_rcc.o
 .text.HAL_RCC_NMI_IRQHandler
                0x00000000       0x24 Drivers\STM32F4xx_HAL_Driver\stm32f4xx_hal_rcc.o
 .text.HAL_RCC_CSSCallback
                0x00000000        0xc Drivers\STM32F4xx_HAL_Driver\stm32f4xx_hal_rcc.o
 .text          0x00000000        0x0 Drivers\STM32F4xx_HAL_Driver\stm32f4xx_hal_pwr_ex.o
 .data          0x00000000        0x0 Drivers\STM32F4xx_HAL_Driver\stm32f4xx_hal_pwr_ex.o
 .bss           0x00000000        0x0 Drivers\STM32F4xx_HAL_Driver\stm32f4xx_hal_pwr_ex.o
 .text.HAL_PWREx_EnableBkUpReg
                0x00000000       0x64 Drivers\STM32F4xx_HAL_Driver\stm32f4xx_hal_pwr_ex.o
 .text.HAL_PWREx_DisableBkUpReg
                0x00000000       0x64 Drivers\STM32F4xx_HAL_Driver\stm32f4xx_hal_pwr_ex.o
 .text.HAL_PWREx_EnableFlashPowerDown
                0x00000000       0x34 Drivers\STM32F4xx_HAL_Driver\stm32f4xx_hal_pwr_ex.o
 .text.HAL_PWREx_DisableFlashPowerDown
                0x00000000       0x34 Drivers\STM32F4xx_HAL_Driver\stm32f4xx_hal_pwr_ex.o
 .text.HAL_PWREx_GetVoltageRange
                0x00000000       0x1c Drivers\STM32F4xx_HAL_Driver\stm32f4xx_hal_pwr_ex.o
 .text.HAL_PWREx_ControlVoltageScaling
                0x00000000       0x7c Drivers\STM32F4xx_HAL_Driver\stm32f4xx_hal_pwr_ex.o
 .debug_info    0x00000000      0x4bb Drivers\STM32F4xx_HAL_Driver\stm32f4xx_hal_pwr_ex.o
 .debug_abbrev  0x00000000      0x197 Drivers\STM32F4xx_HAL_Driver\stm32f4xx_hal_pwr_ex.o
 .debug_aranges
                0x00000000       0x48 Drivers\STM32F4xx_HAL_Driver\stm32f4xx_hal_pwr_ex.o
 .debug_ranges  0x00000000       0x38 Drivers\STM32F4xx_HAL_Driver\stm32f4xx_hal_pwr_ex.o
 .debug_line    0x00000000      0x2de Drivers\STM32F4xx_HAL_Driver\stm32f4xx_hal_pwr_ex.o
 .debug_str     0x00000000      0x441 Drivers\STM32F4xx_HAL_Driver\stm32f4xx_hal_pwr_ex.o
 .comment       0x00000000       0x83 Drivers\STM32F4xx_HAL_Driver\stm32f4xx_hal_pwr_ex.o
 .ARM.attributes
                0x00000000       0x39 Drivers\STM32F4xx_HAL_Driver\stm32f4xx_hal_pwr_ex.o
 .debug_frame   0x00000000       0xc0 Drivers\STM32F4xx_HAL_Driver\stm32f4xx_hal_pwr_ex.o
 .text          0x00000000        0x0 Drivers\STM32F4xx_HAL_Driver\stm32f4xx_hal_pwr.o
 .data          0x00000000        0x0 Drivers\STM32F4xx_HAL_Driver\stm32f4xx_hal_pwr.o
 .bss           0x00000000        0x0 Drivers\STM32F4xx_HAL_Driver\stm32f4xx_hal_pwr.o
 .text.HAL_PWR_DeInit
                0x00000000       0x28 Drivers\STM32F4xx_HAL_Driver\stm32f4xx_hal_pwr.o
 .text.HAL_PWR_EnableBkUpAccess
                0x00000000       0x34 Drivers\STM32F4xx_HAL_Driver\stm32f4xx_hal_pwr.o
 .text.HAL_PWR_DisableBkUpAccess
                0x00000000       0x34 Drivers\STM32F4xx_HAL_Driver\stm32f4xx_hal_pwr.o
 .text.HAL_PWR_ConfigPVD
                0x00000000       0xbc Drivers\STM32F4xx_HAL_Driver\stm32f4xx_hal_pwr.o
 .text.HAL_PWR_EnablePVD
                0x00000000       0x30 Drivers\STM32F4xx_HAL_Driver\stm32f4xx_hal_pwr.o
 .text.HAL_PWR_DisablePVD
                0x00000000       0x30 Drivers\STM32F4xx_HAL_Driver\stm32f4xx_hal_pwr.o
 .text.HAL_PWR_EnableWakeUpPin
                0x00000000       0x24 Drivers\STM32F4xx_HAL_Driver\stm32f4xx_hal_pwr.o
 .text.HAL_PWR_DisableWakeUpPin
                0x00000000       0x24 Drivers\STM32F4xx_HAL_Driver\stm32f4xx_hal_pwr.o
 .text.HAL_PWR_EnterSLEEPMode
                0x00000000       0x38 Drivers\STM32F4xx_HAL_Driver\stm32f4xx_hal_pwr.o
 .text.HAL_PWR_EnterSTOPMode
                0x00000000       0x58 Drivers\STM32F4xx_HAL_Driver\stm32f4xx_hal_pwr.o
 .text.HAL_PWR_EnterSTANDBYMode
                0x00000000       0x30 Drivers\STM32F4xx_HAL_Driver\stm32f4xx_hal_pwr.o
 .text.HAL_PWR_PVD_IRQHandler
                0x00000000       0x24 Drivers\STM32F4xx_HAL_Driver\stm32f4xx_hal_pwr.o
 .text.HAL_PWR_PVDCallback
                0x00000000        0xc Drivers\STM32F4xx_HAL_Driver\stm32f4xx_hal_pwr.o
 .text.HAL_PWR_EnableSleepOnExit
                0x00000000       0x1c Drivers\STM32F4xx_HAL_Driver\stm32f4xx_hal_pwr.o
 .text.HAL_PWR_DisableSleepOnExit
                0x00000000       0x1c Drivers\STM32F4xx_HAL_Driver\stm32f4xx_hal_pwr.o
 .text.HAL_PWR_EnableSEVOnPend
                0x00000000       0x1c Drivers\STM32F4xx_HAL_Driver\stm32f4xx_hal_pwr.o
 .text.HAL_PWR_DisableSEVOnPend
                0x00000000       0x1c Drivers\STM32F4xx_HAL_Driver\stm32f4xx_hal_pwr.o
 .debug_info    0x00000000      0x833 Drivers\STM32F4xx_HAL_Driver\stm32f4xx_hal_pwr.o
 .debug_abbrev  0x00000000      0x1f3 Drivers\STM32F4xx_HAL_Driver\stm32f4xx_hal_pwr.o
 .debug_aranges
                0x00000000       0xa0 Drivers\STM32F4xx_HAL_Driver\stm32f4xx_hal_pwr.o
 .debug_ranges  0x00000000       0x90 Drivers\STM32F4xx_HAL_Driver\stm32f4xx_hal_pwr.o
 .debug_line    0x00000000      0x3b9 Drivers\STM32F4xx_HAL_Driver\stm32f4xx_hal_pwr.o
 .debug_str     0x00000000      0x5a4 Drivers\STM32F4xx_HAL_Driver\stm32f4xx_hal_pwr.o
 .comment       0x00000000       0x83 Drivers\STM32F4xx_HAL_Driver\stm32f4xx_hal_pwr.o
 .ARM.attributes
                0x00000000       0x39 Drivers\STM32F4xx_HAL_Driver\stm32f4xx_hal_pwr.o
 .debug_frame   0x00000000      0x1d0 Drivers\STM32F4xx_HAL_Driver\stm32f4xx_hal_pwr.o
 .text          0x00000000        0x0 Drivers\STM32F4xx_HAL_Driver\stm32f4xx_hal_gpio.o
 .data          0x00000000        0x0 Drivers\STM32F4xx_HAL_Driver\stm32f4xx_hal_gpio.o
 .bss           0x00000000        0x0 Drivers\STM32F4xx_HAL_Driver\stm32f4xx_hal_gpio.o
 .text.HAL_GPIO_DeInit
                0x00000000      0x204 Drivers\STM32F4xx_HAL_Driver\stm32f4xx_hal_gpio.o
 .text.HAL_GPIO_ReadPin
                0x00000000       0x30 Drivers\STM32F4xx_HAL_Driver\stm32f4xx_hal_gpio.o
 .text.HAL_GPIO_WritePin
                0x00000000       0x30 Drivers\STM32F4xx_HAL_Driver\stm32f4xx_hal_gpio.o
 .text.HAL_GPIO_TogglePin
                0x00000000       0x24 Drivers\STM32F4xx_HAL_Driver\stm32f4xx_hal_gpio.o
 .text.HAL_GPIO_LockPin
                0x00000000       0x50 Drivers\STM32F4xx_HAL_Driver\stm32f4xx_hal_gpio.o
 .text.HAL_GPIO_EXTI_IRQHandler
                0x00000000       0x30 Drivers\STM32F4xx_HAL_Driver\stm32f4xx_hal_gpio.o
 .text.HAL_GPIO_EXTI_Callback
                0x00000000       0x14 Drivers\STM32F4xx_HAL_Driver\stm32f4xx_hal_gpio.o
 .text          0x00000000        0x0 Drivers\STM32F4xx_HAL_Driver\stm32f4xx_hal_flash_ramfunc.o
 .data          0x00000000        0x0 Drivers\STM32F4xx_HAL_Driver\stm32f4xx_hal_flash_ramfunc.o
 .bss           0x00000000        0x0 Drivers\STM32F4xx_HAL_Driver\stm32f4xx_hal_flash_ramfunc.o
 .debug_info    0x00000000       0x99 Drivers\STM32F4xx_HAL_Driver\stm32f4xx_hal_flash_ramfunc.o
 .debug_abbrev  0x00000000       0x4b Drivers\STM32F4xx_HAL_Driver\stm32f4xx_hal_flash_ramfunc.o
 .debug_aranges
                0x00000000       0x18 Drivers\STM32F4xx_HAL_Driver\stm32f4xx_hal_flash_ramfunc.o
 .debug_line    0x00000000      0x12e Drivers\STM32F4xx_HAL_Driver\stm32f4xx_hal_flash_ramfunc.o
 .debug_str     0x00000000      0x201 Drivers\STM32F4xx_HAL_Driver\stm32f4xx_hal_flash_ramfunc.o
 .comment       0x00000000       0x83 Drivers\STM32F4xx_HAL_Driver\stm32f4xx_hal_flash_ramfunc.o
 .ARM.attributes
                0x00000000       0x39 Drivers\STM32F4xx_HAL_Driver\stm32f4xx_hal_flash_ramfunc.o
 .text          0x00000000        0x0 Drivers\STM32F4xx_HAL_Driver\stm32f4xx_hal_flash_ex.o
 .data          0x00000000        0x0 Drivers\STM32F4xx_HAL_Driver\stm32f4xx_hal_flash_ex.o
 .bss           0x00000000        0x0 Drivers\STM32F4xx_HAL_Driver\stm32f4xx_hal_flash_ex.o
 .text.HAL_FLASHEx_Erase
                0x00000000       0xe0 Drivers\STM32F4xx_HAL_Driver\stm32f4xx_hal_flash_ex.o
 .text.HAL_FLASHEx_Erase_IT
                0x00000000       0xac Drivers\STM32F4xx_HAL_Driver\stm32f4xx_hal_flash_ex.o
 .text.HAL_FLASHEx_OBProgram
                0x00000000       0xe0 Drivers\STM32F4xx_HAL_Driver\stm32f4xx_hal_flash_ex.o
 .text.FLASH_FlushCaches
                0x00000000       0x88 Drivers\STM32F4xx_HAL_Driver\stm32f4xx_hal_flash_ex.o
 .text.HAL_FLASHEx_OBGetConfig
                0x00000000       0x44 Drivers\STM32F4xx_HAL_Driver\stm32f4xx_hal_flash_ex.o
 .text.FLASH_MassErase
                0x00000000       0x50 Drivers\STM32F4xx_HAL_Driver\stm32f4xx_hal_flash_ex.o
 .text.FLASH_Erase_Sector
                0x00000000       0xa4 Drivers\STM32F4xx_HAL_Driver\stm32f4xx_hal_flash_ex.o
 .text.FLASH_OB_EnableWRP
                0x00000000       0x44 Drivers\STM32F4xx_HAL_Driver\stm32f4xx_hal_flash_ex.o
 .text.FLASH_OB_DisableWRP
                0x00000000       0x40 Drivers\STM32F4xx_HAL_Driver\stm32f4xx_hal_flash_ex.o
 .text.FLASH_OB_RDP_LevelConfig
                0x00000000       0x34 Drivers\STM32F4xx_HAL_Driver\stm32f4xx_hal_flash_ex.o
 .text.FLASH_OB_UserConfig
                0x00000000       0x60 Drivers\STM32F4xx_HAL_Driver\stm32f4xx_hal_flash_ex.o
 .text.FLASH_OB_BOR_LevelConfig
                0x00000000       0x3c Drivers\STM32F4xx_HAL_Driver\stm32f4xx_hal_flash_ex.o
 .text.FLASH_OB_GetUser
                0x00000000       0x20 Drivers\STM32F4xx_HAL_Driver\stm32f4xx_hal_flash_ex.o
 .text.FLASH_OB_GetWRP
                0x00000000       0x18 Drivers\STM32F4xx_HAL_Driver\stm32f4xx_hal_flash_ex.o
 .text.FLASH_OB_GetRDP
                0x00000000       0x40 Drivers\STM32F4xx_HAL_Driver\stm32f4xx_hal_flash_ex.o
 .text.FLASH_OB_GetBOR
                0x00000000       0x20 Drivers\STM32F4xx_HAL_Driver\stm32f4xx_hal_flash_ex.o
 .debug_info    0x00000000      0x6bd Drivers\STM32F4xx_HAL_Driver\stm32f4xx_hal_flash_ex.o
 .debug_abbrev  0x00000000      0x24e Drivers\STM32F4xx_HAL_Driver\stm32f4xx_hal_flash_ex.o
 .debug_aranges
                0x00000000       0x98 Drivers\STM32F4xx_HAL_Driver\stm32f4xx_hal_flash_ex.o
 .debug_ranges  0x00000000       0x88 Drivers\STM32F4xx_HAL_Driver\stm32f4xx_hal_flash_ex.o
 .debug_line    0x00000000      0x424 Drivers\STM32F4xx_HAL_Driver\stm32f4xx_hal_flash_ex.o
 .debug_str     0x00000000      0x5d4 Drivers\STM32F4xx_HAL_Driver\stm32f4xx_hal_flash_ex.o
 .comment       0x00000000       0x83 Drivers\STM32F4xx_HAL_Driver\stm32f4xx_hal_flash_ex.o
 .ARM.attributes
                0x00000000       0x39 Drivers\STM32F4xx_HAL_Driver\stm32f4xx_hal_flash_ex.o
 .debug_frame   0x00000000      0x1e0 Drivers\STM32F4xx_HAL_Driver\stm32f4xx_hal_flash_ex.o
 .text          0x00000000        0x0 Drivers\STM32F4xx_HAL_Driver\stm32f4xx_hal_flash.o
 .data          0x00000000        0x0 Drivers\STM32F4xx_HAL_Driver\stm32f4xx_hal_flash.o
 .bss           0x00000000        0x0 Drivers\STM32F4xx_HAL_Driver\stm32f4xx_hal_flash.o
 .text.HAL_FLASH_Program
                0x00000000       0xa8 Drivers\STM32F4xx_HAL_Driver\stm32f4xx_hal_flash.o
 .text.HAL_FLASH_Program_IT
                0x00000000       0x9c Drivers\STM32F4xx_HAL_Driver\stm32f4xx_hal_flash.o
 .text.HAL_FLASH_IRQHandler
                0x00000000      0x13c Drivers\STM32F4xx_HAL_Driver\stm32f4xx_hal_flash.o
 .text.HAL_FLASH_EndOfOperationCallback
                0x00000000       0x14 Drivers\STM32F4xx_HAL_Driver\stm32f4xx_hal_flash.o
 .text.HAL_FLASH_OperationErrorCallback
                0x00000000       0x14 Drivers\STM32F4xx_HAL_Driver\stm32f4xx_hal_flash.o
 .text.HAL_FLASH_Unlock
                0x00000000       0x34 Drivers\STM32F4xx_HAL_Driver\stm32f4xx_hal_flash.o
 .text.HAL_FLASH_Lock
                0x00000000       0x20 Drivers\STM32F4xx_HAL_Driver\stm32f4xx_hal_flash.o
 .text.HAL_FLASH_OB_Unlock
                0x00000000       0x38 Drivers\STM32F4xx_HAL_Driver\stm32f4xx_hal_flash.o
 .text.HAL_FLASH_OB_Lock
                0x00000000       0x20 Drivers\STM32F4xx_HAL_Driver\stm32f4xx_hal_flash.o
 .text.HAL_FLASH_OB_Launch
                0x00000000       0x28 Drivers\STM32F4xx_HAL_Driver\stm32f4xx_hal_flash.o
 .text.HAL_FLASH_GetError
                0x00000000       0x18 Drivers\STM32F4xx_HAL_Driver\stm32f4xx_hal_flash.o
 .text.FLASH_WaitForLastOperation
                0x00000000       0x80 Drivers\STM32F4xx_HAL_Driver\stm32f4xx_hal_flash.o
 .text.FLASH_Program_DoubleWord
                0x00000000       0x48 Drivers\STM32F4xx_HAL_Driver\stm32f4xx_hal_flash.o
 .text.FLASH_Program_Word
                0x00000000       0x44 Drivers\STM32F4xx_HAL_Driver\stm32f4xx_hal_flash.o
 .text.FLASH_Program_HalfWord
                0x00000000       0x44 Drivers\STM32F4xx_HAL_Driver\stm32f4xx_hal_flash.o
 .text.FLASH_Program_Byte
                0x00000000       0x40 Drivers\STM32F4xx_HAL_Driver\stm32f4xx_hal_flash.o
 .text.FLASH_SetErrorCode
                0x00000000       0xcc Drivers\STM32F4xx_HAL_Driver\stm32f4xx_hal_flash.o
 .debug_info    0x00000000      0x542 Drivers\STM32F4xx_HAL_Driver\stm32f4xx_hal_flash.o
 .debug_abbrev  0x00000000      0x1dd Drivers\STM32F4xx_HAL_Driver\stm32f4xx_hal_flash.o
 .debug_aranges
                0x00000000       0xa0 Drivers\STM32F4xx_HAL_Driver\stm32f4xx_hal_flash.o
 .debug_ranges  0x00000000       0x90 Drivers\STM32F4xx_HAL_Driver\stm32f4xx_hal_flash.o
 .debug_line    0x00000000      0x403 Drivers\STM32F4xx_HAL_Driver\stm32f4xx_hal_flash.o
 .debug_str     0x00000000      0x55a Drivers\STM32F4xx_HAL_Driver\stm32f4xx_hal_flash.o
 .comment       0x00000000       0x83 Drivers\STM32F4xx_HAL_Driver\stm32f4xx_hal_flash.o
 .ARM.attributes
                0x00000000       0x39 Drivers\STM32F4xx_HAL_Driver\stm32f4xx_hal_flash.o
 .debug_frame   0x00000000      0x1e4 Drivers\STM32F4xx_HAL_Driver\stm32f4xx_hal_flash.o
 COMMON         0x00000000       0x20 Drivers\STM32F4xx_HAL_Driver\stm32f4xx_hal_flash.o
 .text          0x00000000        0x0 Drivers\STM32F4xx_HAL_Driver\stm32f4xx_hal_eth.o
 .data          0x00000000        0x0 Drivers\STM32F4xx_HAL_Driver\stm32f4xx_hal_eth.o
 .bss           0x00000000        0x0 Drivers\STM32F4xx_HAL_Driver\stm32f4xx_hal_eth.o
 .text.HAL_ETH_DeInit
                0x00000000       0x30 Drivers\STM32F4xx_HAL_Driver\stm32f4xx_hal_eth.o
 .text.HAL_ETH_MspInit
                0x00000000       0x14 Drivers\STM32F4xx_HAL_Driver\stm32f4xx_hal_eth.o
 .text.HAL_ETH_MspDeInit
                0x00000000       0x14 Drivers\STM32F4xx_HAL_Driver\stm32f4xx_hal_eth.o
 .text.HAL_ETH_GetReceivedFrame
                0x00000000      0x10c Drivers\STM32F4xx_HAL_Driver\stm32f4xx_hal_eth.o
 .text.HAL_ETH_RxCpltCallback
                0x00000000       0x14 Drivers\STM32F4xx_HAL_Driver\stm32f4xx_hal_eth.o
 .text.HAL_ETH_Stop
                0x00000000       0x60 Drivers\STM32F4xx_HAL_Driver\stm32f4xx_hal_eth.o
 .text.HAL_ETH_ConfigMAC
                0x00000000      0x1f0 Drivers\STM32F4xx_HAL_Driver\stm32f4xx_hal_eth.o
 .text.HAL_ETH_ConfigDMA
                0x00000000      0x120 Drivers\STM32F4xx_HAL_Driver\stm32f4xx_hal_eth.o
 .text.HAL_ETH_GetState
                0x00000000       0x1c Drivers\STM32F4xx_HAL_Driver\stm32f4xx_hal_eth.o
 .text.ETH_MACTransmissionDisable
                0x00000000       0x38 Drivers\STM32F4xx_HAL_Driver\stm32f4xx_hal_eth.o
 .text.ETH_MACReceptionDisable
                0x00000000       0x38 Drivers\STM32F4xx_HAL_Driver\stm32f4xx_hal_eth.o
 .text.ETH_DMATransmissionDisable
                0x00000000       0x30 Drivers\STM32F4xx_HAL_Driver\stm32f4xx_hal_eth.o
 .text.ETH_DMAReceptionDisable
                0x00000000       0x30 Drivers\STM32F4xx_HAL_Driver\stm32f4xx_hal_eth.o
 .text          0x00000000        0x0 Drivers\STM32F4xx_HAL_Driver\stm32f4xx_hal_dma_ex.o
 .data          0x00000000        0x0 Drivers\STM32F4xx_HAL_Driver\stm32f4xx_hal_dma_ex.o
 .bss           0x00000000        0x0 Drivers\STM32F4xx_HAL_Driver\stm32f4xx_hal_dma_ex.o
 .text.HAL_DMAEx_MultiBufferStart
                0x00000000       0xa0 Drivers\STM32F4xx_HAL_Driver\stm32f4xx_hal_dma_ex.o
 .text.HAL_DMAEx_MultiBufferStart_IT
                0x00000000       0xf0 Drivers\STM32F4xx_HAL_Driver\stm32f4xx_hal_dma_ex.o
 .text.HAL_DMAEx_ChangeMemory
                0x00000000       0x34 Drivers\STM32F4xx_HAL_Driver\stm32f4xx_hal_dma_ex.o
 .text.DMA_MultiBufferSetConfig
                0x00000000       0x4c Drivers\STM32F4xx_HAL_Driver\stm32f4xx_hal_dma_ex.o
 .debug_info    0x00000000      0x4af Drivers\STM32F4xx_HAL_Driver\stm32f4xx_hal_dma_ex.o
 .debug_abbrev  0x00000000      0x156 Drivers\STM32F4xx_HAL_Driver\stm32f4xx_hal_dma_ex.o
 .debug_aranges
                0x00000000       0x38 Drivers\STM32F4xx_HAL_Driver\stm32f4xx_hal_dma_ex.o
 .debug_ranges  0x00000000       0x28 Drivers\STM32F4xx_HAL_Driver\stm32f4xx_hal_dma_ex.o
 .debug_line    0x00000000      0x2b1 Drivers\STM32F4xx_HAL_Driver\stm32f4xx_hal_dma_ex.o
 .debug_str     0x00000000      0x5c8 Drivers\STM32F4xx_HAL_Driver\stm32f4xx_hal_dma_ex.o
 .comment       0x00000000       0x83 Drivers\STM32F4xx_HAL_Driver\stm32f4xx_hal_dma_ex.o
 .ARM.attributes
                0x00000000       0x39 Drivers\STM32F4xx_HAL_Driver\stm32f4xx_hal_dma_ex.o
 .debug_frame   0x00000000       0x88 Drivers\STM32F4xx_HAL_Driver\stm32f4xx_hal_dma_ex.o
 .text          0x00000000        0x0 Drivers\STM32F4xx_HAL_Driver\stm32f4xx_hal_dma.o
 .data          0x00000000        0x0 Drivers\STM32F4xx_HAL_Driver\stm32f4xx_hal_dma.o
 .bss           0x00000000        0x0 Drivers\STM32F4xx_HAL_Driver\stm32f4xx_hal_dma.o
 .text.HAL_DMA_Init
                0x00000000       0xd8 Drivers\STM32F4xx_HAL_Driver\stm32f4xx_hal_dma.o
 .text.HAL_DMA_DeInit
                0x00000000       0x9c Drivers\STM32F4xx_HAL_Driver\stm32f4xx_hal_dma.o
 .text.HAL_DMA_Start
                0x00000000       0x64 Drivers\STM32F4xx_HAL_Driver\stm32f4xx_hal_dma.o
 .text.HAL_DMA_Start_IT
                0x00000000       0x84 Drivers\STM32F4xx_HAL_Driver\stm32f4xx_hal_dma.o
 .text.HAL_DMA_Abort
                0x00000000       0x7c Drivers\STM32F4xx_HAL_Driver\stm32f4xx_hal_dma.o
 .text.HAL_DMA_PollForTransfer
                0x00000000      0x208 Drivers\STM32F4xx_HAL_Driver\stm32f4xx_hal_dma.o
 .text.HAL_DMA_IRQHandler
                0x00000000      0x2d8 Drivers\STM32F4xx_HAL_Driver\stm32f4xx_hal_dma.o
 .text.HAL_DMA_GetState
                0x00000000       0x1c Drivers\STM32F4xx_HAL_Driver\stm32f4xx_hal_dma.o
 .text.HAL_DMA_GetError
                0x00000000       0x18 Drivers\STM32F4xx_HAL_Driver\stm32f4xx_hal_dma.o
 .text.DMA_SetConfig
                0x00000000       0x5c Drivers\STM32F4xx_HAL_Driver\stm32f4xx_hal_dma.o
 .text.DMA_CalcBaseAndBitshift
                0x00000000       0x6c Drivers\STM32F4xx_HAL_Driver\stm32f4xx_hal_dma.o
 .rodata.flagBitshiftOffset.7023
                0x00000000        0x8 Drivers\STM32F4xx_HAL_Driver\stm32f4xx_hal_dma.o
 .debug_info    0x00000000      0x6ea Drivers\STM32F4xx_HAL_Driver\stm32f4xx_hal_dma.o
 .debug_abbrev  0x00000000      0x204 Drivers\STM32F4xx_HAL_Driver\stm32f4xx_hal_dma.o
 .debug_aranges
                0x00000000       0x70 Drivers\STM32F4xx_HAL_Driver\stm32f4xx_hal_dma.o
 .debug_ranges  0x00000000       0x60 Drivers\STM32F4xx_HAL_Driver\stm32f4xx_hal_dma.o
 .debug_line    0x00000000      0x405 Drivers\STM32F4xx_HAL_Driver\stm32f4xx_hal_dma.o
 .debug_str     0x00000000      0x68d Drivers\STM32F4xx_HAL_Driver\stm32f4xx_hal_dma.o
 .comment       0x00000000       0x83 Drivers\STM32F4xx_HAL_Driver\stm32f4xx_hal_dma.o
 .ARM.attributes
                0x00000000       0x39 Drivers\STM32F4xx_HAL_Driver\stm32f4xx_hal_dma.o
 .debug_frame   0x00000000      0x160 Drivers\STM32F4xx_HAL_Driver\stm32f4xx_hal_dma.o
 .text          0x00000000        0x0 Drivers\STM32F4xx_HAL_Driver\stm32f4xx_hal_cortex.o
 .data          0x00000000        0x0 Drivers\STM32F4xx_HAL_Driver\stm32f4xx_hal_cortex.o
 .bss           0x00000000        0x0 Drivers\STM32F4xx_HAL_Driver\stm32f4xx_hal_cortex.o
 .text.NVIC_DisableIRQ
                0x00000000       0x34 Drivers\STM32F4xx_HAL_Driver\stm32f4xx_hal_cortex.o
 .text.NVIC_GetPendingIRQ
                0x00000000       0x38 Drivers\STM32F4xx_HAL_Driver\stm32f4xx_hal_cortex.o
 .text.NVIC_SetPendingIRQ
                0x00000000       0x34 Drivers\STM32F4xx_HAL_Driver\stm32f4xx_hal_cortex.o
 .text.NVIC_ClearPendingIRQ
                0x00000000       0x34 Drivers\STM32F4xx_HAL_Driver\stm32f4xx_hal_cortex.o
 .text.NVIC_GetActive
                0x00000000       0x38 Drivers\STM32F4xx_HAL_Driver\stm32f4xx_hal_cortex.o
 .text.NVIC_GetPriority
                0x00000000       0x50 Drivers\STM32F4xx_HAL_Driver\stm32f4xx_hal_cortex.o
 .text.NVIC_DecodePriority
                0x00000000       0x68 Drivers\STM32F4xx_HAL_Driver\stm32f4xx_hal_cortex.o
 .text.NVIC_SystemReset
                0x00000000       0x28 Drivers\STM32F4xx_HAL_Driver\stm32f4xx_hal_cortex.o
 .text.HAL_NVIC_DisableIRQ
                0x00000000       0x1c Drivers\STM32F4xx_HAL_Driver\stm32f4xx_hal_cortex.o
 .text.HAL_NVIC_SystemReset
                0x00000000        0xc Drivers\STM32F4xx_HAL_Driver\stm32f4xx_hal_cortex.o
 .text.HAL_MPU_ConfigRegion
                0x00000000       0x84 Drivers\STM32F4xx_HAL_Driver\stm32f4xx_hal_cortex.o
 .text.HAL_NVIC_GetPriorityGrouping
                0x00000000       0x10 Drivers\STM32F4xx_HAL_Driver\stm32f4xx_hal_cortex.o
 .text.HAL_NVIC_GetPriority
                0x00000000       0x30 Drivers\STM32F4xx_HAL_Driver\stm32f4xx_hal_cortex.o
 .text.HAL_NVIC_SetPendingIRQ
                0x00000000       0x1c Drivers\STM32F4xx_HAL_Driver\stm32f4xx_hal_cortex.o
 .text.HAL_NVIC_GetPendingIRQ
                0x00000000       0x20 Drivers\STM32F4xx_HAL_Driver\stm32f4xx_hal_cortex.o
 .text.HAL_NVIC_ClearPendingIRQ
                0x00000000       0x1c Drivers\STM32F4xx_HAL_Driver\stm32f4xx_hal_cortex.o
 .text.HAL_NVIC_GetActive
                0x00000000       0x20 Drivers\STM32F4xx_HAL_Driver\stm32f4xx_hal_cortex.o
 .text.HAL_SYSTICK_IRQHandler
                0x00000000        0xc Drivers\STM32F4xx_HAL_Driver\stm32f4xx_hal_cortex.o
 .text.HAL_SYSTICK_Callback
                0x00000000        0xc Drivers\STM32F4xx_HAL_Driver\stm32f4xx_hal_cortex.o
 .text          0x00000000        0x0 Drivers\STM32F4xx_HAL_Driver\stm32f4xx_hal.o
 .data          0x00000000        0x0 Drivers\STM32F4xx_HAL_Driver\stm32f4xx_hal.o
 .bss           0x00000000        0x0 Drivers\STM32F4xx_HAL_Driver\stm32f4xx_hal.o
 .text.HAL_DeInit
                0x00000000       0x58 Drivers\STM32F4xx_HAL_Driver\stm32f4xx_hal.o
 .text.HAL_MspInit
                0x00000000        0xc Drivers\STM32F4xx_HAL_Driver\stm32f4xx_hal.o
 .text.HAL_MspDeInit
                0x00000000        0xc Drivers\STM32F4xx_HAL_Driver\stm32f4xx_hal.o
 .text.HAL_SuspendTick
                0x00000000       0x1c Drivers\STM32F4xx_HAL_Driver\stm32f4xx_hal.o
 .text.HAL_ResumeTick
                0x00000000       0x1c Drivers\STM32F4xx_HAL_Driver\stm32f4xx_hal.o
 .text.HAL_GetHalVersion
                0x00000000       0x14 Drivers\STM32F4xx_HAL_Driver\stm32f4xx_hal.o
 .text.HAL_GetREVID
                0x00000000       0x18 Drivers\STM32F4xx_HAL_Driver\stm32f4xx_hal.o
 .text.HAL_GetDEVID
                0x00000000       0x1c Drivers\STM32F4xx_HAL_Driver\stm32f4xx_hal.o
 .text.HAL_DBGMCU_EnableDBGSleepMode
                0x00000000       0x1c Drivers\STM32F4xx_HAL_Driver\stm32f4xx_hal.o
 .text.HAL_DBGMCU_DisableDBGSleepMode
                0x00000000       0x1c Drivers\STM32F4xx_HAL_Driver\stm32f4xx_hal.o
 .text.HAL_DBGMCU_EnableDBGStopMode
                0x00000000       0x1c Drivers\STM32F4xx_HAL_Driver\stm32f4xx_hal.o
 .text.HAL_DBGMCU_DisableDBGStopMode
                0x00000000       0x1c Drivers\STM32F4xx_HAL_Driver\stm32f4xx_hal.o
 .text.HAL_DBGMCU_EnableDBGStandbyMode
                0x00000000       0x1c Drivers\STM32F4xx_HAL_Driver\stm32f4xx_hal.o
 .text.HAL_DBGMCU_DisableDBGStandbyMode
                0x00000000       0x1c Drivers\STM32F4xx_HAL_Driver\stm32f4xx_hal.o
 .text.HAL_EnableCompensationCell
                0x00000000       0x34 Drivers\STM32F4xx_HAL_Driver\stm32f4xx_hal.o
 .text.HAL_DisableCompensationCell
                0x00000000       0x34 Drivers\STM32F4xx_HAL_Driver\stm32f4xx_hal.o
 .text          0x00000000        0x0 Drivers\CMSIS\system_stm32f4xx.o
 .data          0x00000000        0x0 Drivers\CMSIS\system_stm32f4xx.o
 .bss           0x00000000        0x0 Drivers\CMSIS\system_stm32f4xx.o
 .rodata.AHBPrescTable
                0x00000000       0x10 Drivers\CMSIS\system_stm32f4xx.o
 .text.SystemCoreClockUpdate
                0x00000000       0xf4 Drivers\CMSIS\system_stm32f4xx.o
 .text          0x00000000        0x0 Application\User\stm32f4xx_it.o
 .data          0x00000000        0x0 Application\User\stm32f4xx_it.o
 .bss           0x00000000        0x0 Application\User\stm32f4xx_it.o
 .text          0x00000000        0x0 Application\User\stm32f4xx_hal_msp.o
 .data          0x00000000        0x0 Application\User\stm32f4xx_hal_msp.o
 .bss           0x00000000        0x0 Application\User\stm32f4xx_hal_msp.o
 .text          0x00000000        0x0 Application\User\main.o
 .data          0x00000000        0x0 Application\User\main.o
 .bss           0x00000000        0x0 Application\User\main.o
 .text          0x00000000        0x0 Application\User\lwip.o
 .data          0x00000000        0x0 Application\User\lwip.o
 .bss           0x00000000        0x0 Application\User\lwip.o
 .text.MX_LWIP_Process
                0x00000000       0x10 Application\User\lwip.o
 .text          0x00000000        0x0 Application\User\freertos.o
 .data          0x00000000        0x0 Application\User\freertos.o
 .bss           0x00000000        0x0 Application\User\freertos.o
 .debug_info    0x00000000       0x72 Application\User\freertos.o
 .debug_abbrev  0x00000000       0x26 Application\User\freertos.o
 .debug_aranges
                0x00000000       0x18 Application\User\freertos.o
 .debug_line    0x00000000       0x1d Application\User\freertos.o
 .debug_str     0x00000000      0x1b2 Application\User\freertos.o
 .comment       0x00000000       0x83 Application\User\freertos.o
 .ARM.attributes
                0x00000000       0x39 Application\User\freertos.o
 .text          0x00000000        0x0 Application\User\ethernetif.o
 .data          0x00000000        0x0 Application\User\ethernetif.o
 .bss           0x00000000        0x0 Application\User\ethernetif.o
 .text.HAL_ETH_MspDeInit
                0x00000000       0x70 Application\User\ethernetif.o
 .text.sys_jiffies
                0x00000000       0x10 Application\User\ethernetif.o
 .text.sys_now  0x00000000       0x10 Application\User\ethernetif.o
 .text.ethernetif_set_link
                0x00000000       0x70 Application\User\ethernetif.o
 .text          0x00000000       0x14 Application\TrueSTUDIO\startup_stm32f407xx.o
 .data          0x00000000        0x0 Application\TrueSTUDIO\startup_stm32f407xx.o
 .bss           0x00000000        0x0 Application\TrueSTUDIO\startup_stm32f407xx.o
 .text          0x00000000        0x0 c:/program files (x86)/atollic/truestudio for arm pro 5.3.1/armtools/bin/../lib/gcc/arm-atollic-eabi/4.8.3/../../../../arm-atollic-eabi/lib/armv7e-m/fpu\libc.a(lib_a-init.o)
 .data          0x00000000        0x0 c:/program files (x86)/atollic/truestudio for arm pro 5.3.1/armtools/bin/../lib/gcc/arm-atollic-eabi/4.8.3/../../../../arm-atollic-eabi/lib/armv7e-m/fpu\libc.a(lib_a-init.o)
 .bss           0x00000000        0x0 c:/program files (x86)/atollic/truestudio for arm pro 5.3.1/armtools/bin/../lib/gcc/arm-atollic-eabi/4.8.3/../../../../arm-atollic-eabi/lib/armv7e-m/fpu\libc.a(lib_a-init.o)
 .text          0x00000000        0x0 c:/program files (x86)/atollic/truestudio for arm pro 5.3.1/armtools/bin/../lib/gcc/arm-atollic-eabi/4.8.3/../../../../arm-atollic-eabi/lib/armv7e-m/fpu\libc.a(lib_a-malloc.o)
 .data          0x00000000        0x0 c:/program files (x86)/atollic/truestudio for arm pro 5.3.1/armtools/bin/../lib/gcc/arm-atollic-eabi/4.8.3/../../../../arm-atollic-eabi/lib/armv7e-m/fpu\libc.a(lib_a-malloc.o)
 .bss           0x00000000        0x0 c:/program files (x86)/atollic/truestudio for arm pro 5.3.1/armtools/bin/../lib/gcc/arm-atollic-eabi/4.8.3/../../../../arm-atollic-eabi/lib/armv7e-m/fpu\libc.a(lib_a-malloc.o)
 .text.free     0x00000000       0x10 c:/program files (x86)/atollic/truestudio for arm pro 5.3.1/armtools/bin/../lib/gcc/arm-atollic-eabi/4.8.3/../../../../arm-atollic-eabi/lib/armv7e-m/fpu\libc.a(lib_a-malloc.o)
 .text          0x00000000        0x0 c:/program files (x86)/atollic/truestudio for arm pro 5.3.1/armtools/bin/../lib/gcc/arm-atollic-eabi/4.8.3/../../../../arm-atollic-eabi/lib/armv7e-m/fpu\libc.a(lib_a-mallocr.o)
 .data          0x00000000        0x0 c:/program files (x86)/atollic/truestudio for arm pro 5.3.1/armtools/bin/../lib/gcc/arm-atollic-eabi/4.8.3/../../../../arm-atollic-eabi/lib/armv7e-m/fpu\libc.a(lib_a-mallocr.o)
 .bss           0x00000000        0x0 c:/program files (x86)/atollic/truestudio for arm pro 5.3.1/armtools/bin/../lib/gcc/arm-atollic-eabi/4.8.3/../../../../arm-atollic-eabi/lib/armv7e-m/fpu\libc.a(lib_a-mallocr.o)
 .text          0x00000000        0x0 c:/program files (x86)/atollic/truestudio for arm pro 5.3.1/armtools/bin/../lib/gcc/arm-atollic-eabi/4.8.3/../../../../arm-atollic-eabi/lib/armv7e-m/fpu\libc.a(lib_a-memcmp.o)
 .data          0x00000000        0x0 c:/program files (x86)/atollic/truestudio for arm pro 5.3.1/armtools/bin/../lib/gcc/arm-atollic-eabi/4.8.3/../../../../arm-atollic-eabi/lib/armv7e-m/fpu\libc.a(lib_a-memcmp.o)
 .bss           0x00000000        0x0 c:/program files (x86)/atollic/truestudio for arm pro 5.3.1/armtools/bin/../lib/gcc/arm-atollic-eabi/4.8.3/../../../../arm-atollic-eabi/lib/armv7e-m/fpu\libc.a(lib_a-memcmp.o)
 .text          0x00000000        0x0 c:/program files (x86)/atollic/truestudio for arm pro 5.3.1/armtools/bin/../lib/gcc/arm-atollic-eabi/4.8.3/../../../../arm-atollic-eabi/lib/armv7e-m/fpu\libc.a(lib_a-memcpy-stub.o)
 .data          0x00000000        0x0 c:/program files (x86)/atollic/truestudio for arm pro 5.3.1/armtools/bin/../lib/gcc/arm-atollic-eabi/4.8.3/../../../../arm-atollic-eabi/lib/armv7e-m/fpu\libc.a(lib_a-memcpy-stub.o)
 .bss           0x00000000        0x0 c:/program files (x86)/atollic/truestudio for arm pro 5.3.1/armtools/bin/../lib/gcc/arm-atollic-eabi/4.8.3/../../../../arm-atollic-eabi/lib/armv7e-m/fpu\libc.a(lib_a-memcpy-stub.o)
 .text          0x00000000        0x0 c:/program files (x86)/atollic/truestudio for arm pro 5.3.1/armtools/bin/../lib/gcc/arm-atollic-eabi/4.8.3/../../../../arm-atollic-eabi/lib/armv7e-m/fpu\libc.a(lib_a-memset.o)
 .data          0x00000000        0x0 c:/program files (x86)/atollic/truestudio for arm pro 5.3.1/armtools/bin/../lib/gcc/arm-atollic-eabi/4.8.3/../../../../arm-atollic-eabi/lib/armv7e-m/fpu\libc.a(lib_a-memset.o)
 .bss           0x00000000        0x0 c:/program files (x86)/atollic/truestudio for arm pro 5.3.1/armtools/bin/../lib/gcc/arm-atollic-eabi/4.8.3/../../../../arm-atollic-eabi/lib/armv7e-m/fpu\libc.a(lib_a-memset.o)
 .text          0x00000000        0x0 c:/program files (x86)/atollic/truestudio for arm pro 5.3.1/armtools/bin/../lib/gcc/arm-atollic-eabi/4.8.3/../../../../arm-atollic-eabi/lib/armv7e-m/fpu\libc.a(lib_a-mlock.o)
 .data          0x00000000        0x0 c:/program files (x86)/atollic/truestudio for arm pro 5.3.1/armtools/bin/../lib/gcc/arm-atollic-eabi/4.8.3/../../../../arm-atollic-eabi/lib/armv7e-m/fpu\libc.a(lib_a-mlock.o)
 .bss           0x00000000        0x0 c:/program files (x86)/atollic/truestudio for arm pro 5.3.1/armtools/bin/../lib/gcc/arm-atollic-eabi/4.8.3/../../../../arm-atollic-eabi/lib/armv7e-m/fpu\libc.a(lib_a-mlock.o)
 .text          0x00000000        0x0 c:/program files (x86)/atollic/truestudio for arm pro 5.3.1/armtools/bin/../lib/gcc/arm-atollic-eabi/4.8.3/../../../../arm-atollic-eabi/lib/armv7e-m/fpu\libc.a(lib_a-sbrkr.o)
 .data          0x00000000        0x0 c:/program files (x86)/atollic/truestudio for arm pro 5.3.1/armtools/bin/../lib/gcc/arm-atollic-eabi/4.8.3/../../../../arm-atollic-eabi/lib/armv7e-m/fpu\libc.a(lib_a-sbrkr.o)
 .bss           0x00000000        0x0 c:/program files (x86)/atollic/truestudio for arm pro 5.3.1/armtools/bin/../lib/gcc/arm-atollic-eabi/4.8.3/../../../../arm-atollic-eabi/lib/armv7e-m/fpu\libc.a(lib_a-sbrkr.o)
 .text          0x00000000        0x0 c:/program files (x86)/atollic/truestudio for arm pro 5.3.1/armtools/bin/../lib/gcc/arm-atollic-eabi/4.8.3/../../../../arm-atollic-eabi/lib/armv7e-m/fpu\libc.a(lib_a-strlen.o)
 .data          0x00000000        0x0 c:/program files (x86)/atollic/truestudio for arm pro 5.3.1/armtools/bin/../lib/gcc/arm-atollic-eabi/4.8.3/../../../../arm-atollic-eabi/lib/armv7e-m/fpu\libc.a(lib_a-strlen.o)
 .bss           0x00000000        0x0 c:/program files (x86)/atollic/truestudio for arm pro 5.3.1/armtools/bin/../lib/gcc/arm-atollic-eabi/4.8.3/../../../../arm-atollic-eabi/lib/armv7e-m/fpu\libc.a(lib_a-strlen.o)
 .text.strlen   0x00000000       0x10 c:/program files (x86)/atollic/truestudio for arm pro 5.3.1/armtools/bin/../lib/gcc/arm-atollic-eabi/4.8.3/../../../../arm-atollic-eabi/lib/armv7e-m/fpu\libc.a(lib_a-strlen.o)
 .ARM.attributes
                0x00000000       0x34 c:/program files (x86)/atollic/truestudio for arm pro 5.3.1/armtools/bin/../lib/gcc/arm-atollic-eabi/4.8.3/../../../../arm-atollic-eabi/lib/armv7e-m/fpu\libc.a(lib_a-strlen.o)
 .debug_frame   0x00000000       0x20 c:/program files (x86)/atollic/truestudio for arm pro 5.3.1/armtools/bin/../lib/gcc/arm-atollic-eabi/4.8.3/../../../../arm-atollic-eabi/lib/armv7e-m/fpu\libc.a(lib_a-strlen.o)
 .text          0x00000000        0x0 c:/program files (x86)/atollic/truestudio for arm pro 5.3.1/armtools/bin/../lib/gcc/arm-atollic-eabi/4.8.3/../../../../arm-atollic-eabi/lib/armv7e-m/fpu\libc.a(lib_a-syscalls.o)
 .data          0x00000000        0x0 c:/program files (x86)/atollic/truestudio for arm pro 5.3.1/armtools/bin/../lib/gcc/arm-atollic-eabi/4.8.3/../../../../arm-atollic-eabi/lib/armv7e-m/fpu\libc.a(lib_a-syscalls.o)
 .bss           0x00000000        0x0 c:/program files (x86)/atollic/truestudio for arm pro 5.3.1/armtools/bin/../lib/gcc/arm-atollic-eabi/4.8.3/../../../../arm-atollic-eabi/lib/armv7e-m/fpu\libc.a(lib_a-syscalls.o)
 .text.initialise_monitor_handles
                0x00000000        0x2 c:/program files (x86)/atollic/truestudio for arm pro 5.3.1/armtools/bin/../lib/gcc/arm-atollic-eabi/4.8.3/../../../../arm-atollic-eabi/lib/armv7e-m/fpu\libc.a(lib_a-syscalls.o)
 .text._getpid  0x00000000        0x4 c:/program files (x86)/atollic/truestudio for arm pro 5.3.1/armtools/bin/../lib/gcc/arm-atollic-eabi/4.8.3/../../../../arm-atollic-eabi/lib/armv7e-m/fpu\libc.a(lib_a-syscalls.o)
 .text._kill    0x00000000       0x10 c:/program files (x86)/atollic/truestudio for arm pro 5.3.1/armtools/bin/../lib/gcc/arm-atollic-eabi/4.8.3/../../../../arm-atollic-eabi/lib/armv7e-m/fpu\libc.a(lib_a-syscalls.o)
 .text._exit    0x00000000        0xc c:/program files (x86)/atollic/truestudio for arm pro 5.3.1/armtools/bin/../lib/gcc/arm-atollic-eabi/4.8.3/../../../../arm-atollic-eabi/lib/armv7e-m/fpu\libc.a(lib_a-syscalls.o)
 .text._write   0x00000000        0x4 c:/program files (x86)/atollic/truestudio for arm pro 5.3.1/armtools/bin/../lib/gcc/arm-atollic-eabi/4.8.3/../../../../arm-atollic-eabi/lib/armv7e-m/fpu\libc.a(lib_a-syscalls.o)
 .text._close   0x00000000        0x6 c:/program files (x86)/atollic/truestudio for arm pro 5.3.1/armtools/bin/../lib/gcc/arm-atollic-eabi/4.8.3/../../../../arm-atollic-eabi/lib/armv7e-m/fpu\libc.a(lib_a-syscalls.o)
 .text._fstat   0x00000000        0xa c:/program files (x86)/atollic/truestudio for arm pro 5.3.1/armtools/bin/../lib/gcc/arm-atollic-eabi/4.8.3/../../../../arm-atollic-eabi/lib/armv7e-m/fpu\libc.a(lib_a-syscalls.o)
 .text._isatty  0x00000000        0x4 c:/program files (x86)/atollic/truestudio for arm pro 5.3.1/armtools/bin/../lib/gcc/arm-atollic-eabi/4.8.3/../../../../arm-atollic-eabi/lib/armv7e-m/fpu\libc.a(lib_a-syscalls.o)
 .text._lseek   0x00000000        0x4 c:/program files (x86)/atollic/truestudio for arm pro 5.3.1/armtools/bin/../lib/gcc/arm-atollic-eabi/4.8.3/../../../../arm-atollic-eabi/lib/armv7e-m/fpu\libc.a(lib_a-syscalls.o)
 .text._read    0x00000000        0x4 c:/program files (x86)/atollic/truestudio for arm pro 5.3.1/armtools/bin/../lib/gcc/arm-atollic-eabi/4.8.3/../../../../arm-atollic-eabi/lib/armv7e-m/fpu\libc.a(lib_a-syscalls.o)
 .text._open    0x00000000        0xa c:/program files (x86)/atollic/truestudio for arm pro 5.3.1/armtools/bin/../lib/gcc/arm-atollic-eabi/4.8.3/../../../../arm-atollic-eabi/lib/armv7e-m/fpu\libc.a(lib_a-syscalls.o)
 .text._wait    0x00000000       0x10 c:/program files (x86)/atollic/truestudio for arm pro 5.3.1/armtools/bin/../lib/gcc/arm-atollic-eabi/4.8.3/../../../../arm-atollic-eabi/lib/armv7e-m/fpu\libc.a(lib_a-syscalls.o)
 .text._unlink  0x00000000       0x10 c:/program files (x86)/atollic/truestudio for arm pro 5.3.1/armtools/bin/../lib/gcc/arm-atollic-eabi/4.8.3/../../../../arm-atollic-eabi/lib/armv7e-m/fpu\libc.a(lib_a-syscalls.o)
 .text._times   0x00000000        0x6 c:/program files (x86)/atollic/truestudio for arm pro 5.3.1/armtools/bin/../lib/gcc/arm-atollic-eabi/4.8.3/../../../../arm-atollic-eabi/lib/armv7e-m/fpu\libc.a(lib_a-syscalls.o)
 .text._stat    0x00000000        0xa c:/program files (x86)/atollic/truestudio for arm pro 5.3.1/armtools/bin/../lib/gcc/arm-atollic-eabi/4.8.3/../../../../arm-atollic-eabi/lib/armv7e-m/fpu\libc.a(lib_a-syscalls.o)
 .text._link    0x00000000       0x10 c:/program files (x86)/atollic/truestudio for arm pro 5.3.1/armtools/bin/../lib/gcc/arm-atollic-eabi/4.8.3/../../../../arm-atollic-eabi/lib/armv7e-m/fpu\libc.a(lib_a-syscalls.o)
 .text._fork    0x00000000       0x10 c:/program files (x86)/atollic/truestudio for arm pro 5.3.1/armtools/bin/../lib/gcc/arm-atollic-eabi/4.8.3/../../../../arm-atollic-eabi/lib/armv7e-m/fpu\libc.a(lib_a-syscalls.o)
 .text._execve  0x00000000       0x10 c:/program files (x86)/atollic/truestudio for arm pro 5.3.1/armtools/bin/../lib/gcc/arm-atollic-eabi/4.8.3/../../../../arm-atollic-eabi/lib/armv7e-m/fpu\libc.a(lib_a-syscalls.o)
 .data.environ  0x00000000        0x4 c:/program files (x86)/atollic/truestudio for arm pro 5.3.1/armtools/bin/../lib/gcc/arm-atollic-eabi/4.8.3/../../../../arm-atollic-eabi/lib/armv7e-m/fpu\libc.a(lib_a-syscalls.o)
 .bss.__env     0x00000000        0x4 c:/program files (x86)/atollic/truestudio for arm pro 5.3.1/armtools/bin/../lib/gcc/arm-atollic-eabi/4.8.3/../../../../arm-atollic-eabi/lib/armv7e-m/fpu\libc.a(lib_a-syscalls.o)
 .text          0x00000000        0x0 c:/program files (x86)/atollic/truestudio for arm pro 5.3.1/armtools/bin/../lib/gcc/arm-atollic-eabi/4.8.3/../../../../arm-atollic-eabi/lib/armv7e-m/fpu\libc.a(lib_a-freer.o)
 .data          0x00000000        0x0 c:/program files (x86)/atollic/truestudio for arm pro 5.3.1/armtools/bin/../lib/gcc/arm-atollic-eabi/4.8.3/../../../../arm-atollic-eabi/lib/armv7e-m/fpu\libc.a(lib_a-freer.o)
 .bss           0x00000000        0x0 c:/program files (x86)/atollic/truestudio for arm pro 5.3.1/armtools/bin/../lib/gcc/arm-atollic-eabi/4.8.3/../../../../arm-atollic-eabi/lib/armv7e-m/fpu\libc.a(lib_a-freer.o)
 .text          0x00000000        0x0 c:/program files (x86)/atollic/truestudio for arm pro 5.3.1/armtools/bin/../lib/gcc/arm-atollic-eabi/4.8.3/../../../../arm-atollic-eabi/lib/armv7e-m/fpu\libc.a(lib_a-impure.o)
 .data          0x00000000        0x0 c:/program files (x86)/atollic/truestudio for arm pro 5.3.1/armtools/bin/../lib/gcc/arm-atollic-eabi/4.8.3/../../../../arm-atollic-eabi/lib/armv7e-m/fpu\libc.a(lib_a-impure.o)
 .bss           0x00000000        0x0 c:/program files (x86)/atollic/truestudio for arm pro 5.3.1/armtools/bin/../lib/gcc/arm-atollic-eabi/4.8.3/../../../../arm-atollic-eabi/lib/armv7e-m/fpu\libc.a(lib_a-impure.o)
 .rodata._global_impure_ptr
                0x00000000        0x4 c:/program files (x86)/atollic/truestudio for arm pro 5.3.1/armtools/bin/../lib/gcc/arm-atollic-eabi/4.8.3/../../../../arm-atollic-eabi/lib/armv7e-m/fpu\libc.a(lib_a-impure.o)
 .text          0x00000000        0x0 c:/program files (x86)/atollic/truestudio for arm pro 5.3.1/armtools/bin/../lib/gcc/arm-atollic-eabi/4.8.3/../../../../arm-atollic-eabi/lib/armv7e-m/fpu\libc.a(lib_a-reent.o)
 .data          0x00000000        0x0 c:/program files (x86)/atollic/truestudio for arm pro 5.3.1/armtools/bin/../lib/gcc/arm-atollic-eabi/4.8.3/../../../../arm-atollic-eabi/lib/armv7e-m/fpu\libc.a(lib_a-reent.o)
 .bss           0x00000000        0x0 c:/program files (x86)/atollic/truestudio for arm pro 5.3.1/armtools/bin/../lib/gcc/arm-atollic-eabi/4.8.3/../../../../arm-atollic-eabi/lib/armv7e-m/fpu\libc.a(lib_a-reent.o)
 .text.cleanup_glue
                0x00000000       0x1a c:/program files (x86)/atollic/truestudio for arm pro 5.3.1/armtools/bin/../lib/gcc/arm-atollic-eabi/4.8.3/../../../../arm-atollic-eabi/lib/armv7e-m/fpu\libc.a(lib_a-reent.o)
 .text._reclaim_reent
                0x00000000       0xd0 c:/program files (x86)/atollic/truestudio for arm pro 5.3.1/armtools/bin/../lib/gcc/arm-atollic-eabi/4.8.3/../../../../arm-atollic-eabi/lib/armv7e-m/fpu\libc.a(lib_a-reent.o)
 .text          0x00000000        0x0 c:/program files (x86)/atollic/truestudio for arm pro 5.3.1/armtools/bin/../lib/gcc/arm-atollic-eabi/4.8.3/armv7e-m/fpu/crtend.o
 .data          0x00000000        0x0 c:/program files (x86)/atollic/truestudio for arm pro 5.3.1/armtools/bin/../lib/gcc/arm-atollic-eabi/4.8.3/armv7e-m/fpu/crtend.o
 .bss           0x00000000        0x0 c:/program files (x86)/atollic/truestudio for arm pro 5.3.1/armtools/bin/../lib/gcc/arm-atollic-eabi/4.8.3/armv7e-m/fpu/crtend.o
 .eh_frame      0x00000000        0x4 c:/program files (x86)/atollic/truestudio for arm pro 5.3.1/armtools/bin/../lib/gcc/arm-atollic-eabi/4.8.3/armv7e-m/fpu/crtend.o
 .ARM.attributes
                0x00000000       0x34 c:/program files (x86)/atollic/truestudio for arm pro 5.3.1/armtools/bin/../lib/gcc/arm-atollic-eabi/4.8.3/armv7e-m/fpu/crtend.o
 .text          0x00000000        0x0 c:/program files (x86)/atollic/truestudio for arm pro 5.3.1/armtools/bin/../lib/gcc/arm-atollic-eabi/4.8.3/armv7e-m/fpu/crtn.o
 .data          0x00000000        0x0 c:/program files (x86)/atollic/truestudio for arm pro 5.3.1/armtools/bin/../lib/gcc/arm-atollic-eabi/4.8.3/armv7e-m/fpu/crtn.o
 .bss           0x00000000        0x0 c:/program files (x86)/atollic/truestudio for arm pro 5.3.1/armtools/bin/../lib/gcc/arm-atollic-eabi/4.8.3/armv7e-m/fpu/crtn.o

Memory Configuration

Name             Origin             Length             Attributes
FLASH            0x08000000         0x00100000         xr
RAM              0x20000000         0x00020000         xrw
CCMRAM           0x10000000         0x00010000         rw
*default*        0x00000000         0xffffffff

Linker script and memory map

LOAD c:/program files (x86)/atollic/truestudio for arm pro 5.3.1/armtools/bin/../lib/gcc/arm-atollic-eabi/4.8.3/armv7e-m/fpu/crti.o
LOAD c:/program files (x86)/atollic/truestudio for arm pro 5.3.1/armtools/bin/../lib/gcc/arm-atollic-eabi/4.8.3/armv7e-m/fpu/crtbegin.o
LOAD Middlewares\LwIP\vj.o
LOAD Middlewares\LwIP\udp.o
LOAD Middlewares\LwIP\tcpip.o
LOAD Middlewares\LwIP\tcp_out.o
LOAD Middlewares\LwIP\tcp_in.o
LOAD Middlewares\LwIP\tcp.o
LOAD Middlewares\LwIP\sys_arch.o
LOAD Middlewares\LwIP\sys.o
LOAD Middlewares\LwIP\stats.o
LOAD Middlewares\LwIP\sockets.o
LOAD Middlewares\LwIP\slipif.o
LOAD Middlewares\LwIP\raw.o
LOAD Middlewares\LwIP\randm.o
LOAD Middlewares\LwIP\ppp_oe.o
LOAD Middlewares\LwIP\ppp.o
LOAD Middlewares\LwIP\pbuf.o
LOAD Middlewares\LwIP\pap.o
LOAD Middlewares\LwIP\netifapi.o
LOAD Middlewares\LwIP\netif.o
LOAD Middlewares\LwIP\netdb.o
LOAD Middlewares\LwIP\netbuf.o
LOAD Middlewares\LwIP\msg_out.o
LOAD Middlewares\LwIP\msg_in.o
LOAD Middlewares\LwIP\mib_structs.o
LOAD Middlewares\LwIP\mib2.o
LOAD Middlewares\LwIP\memp.o
LOAD Middlewares\LwIP\mem.o
LOAD Middlewares\LwIP\md5.o
LOAD Middlewares\LwIP\magic.o
LOAD Middlewares\LwIP\lwip_timers.o
LOAD Middlewares\LwIP\lcp.o
LOAD Middlewares\LwIP\ipcp.o
LOAD Middlewares\LwIP\ip_frag.o
LOAD Middlewares\LwIP\ip_addr.o
LOAD Middlewares\LwIP\ip.o
LOAD Middlewares\LwIP\init.o
LOAD Middlewares\LwIP\inet_chksum.o
LOAD Middlewares\LwIP\inet.o
LOAD Middlewares\LwIP\igmp.o
LOAD Middlewares\LwIP\icmp.o
LOAD Middlewares\LwIP\fsm.o
LOAD Middlewares\LwIP\etharp.o
LOAD Middlewares\LwIP\err.o
LOAD Middlewares\LwIP\dns.o
LOAD Middlewares\LwIP\dhcp.o
LOAD Middlewares\LwIP\def.o
LOAD Middlewares\LwIP\chpms.o
LOAD Middlewares\LwIP\chap.o
LOAD Middlewares\LwIP\autoip.o
LOAD Middlewares\LwIP\auth.o
LOAD Middlewares\LwIP\asn1_enc.o
LOAD Middlewares\LwIP\asn1_dec.o
LOAD Middlewares\LwIP\api_msg.o
LOAD Middlewares\LwIP\api_lib.o
LOAD Middlewares\FreeRTOS\timers.o
LOAD Middlewares\FreeRTOS\tasks.o
LOAD Middlewares\FreeRTOS\queue.o
LOAD Middlewares\FreeRTOS\port.o
LOAD Middlewares\FreeRTOS\list.o
LOAD Middlewares\FreeRTOS\heap_4.o
LOAD Middlewares\FreeRTOS\event_groups.o
LOAD Middlewares\FreeRTOS\croutine.o
LOAD Middlewares\FreeRTOS\cmsis_os.o
LOAD Drivers\STM32F4xx_HAL_Driver\stm32f4xx_hal_rcc_ex.o
LOAD Drivers\STM32F4xx_HAL_Driver\stm32f4xx_hal_rcc.o
LOAD Drivers\STM32F4xx_HAL_Driver\stm32f4xx_hal_pwr_ex.o
LOAD Drivers\STM32F4xx_HAL_Driver\stm32f4xx_hal_pwr.o
LOAD Drivers\STM32F4xx_HAL_Driver\stm32f4xx_hal_gpio.o
LOAD Drivers\STM32F4xx_HAL_Driver\stm32f4xx_hal_flash_ramfunc.o
LOAD Drivers\STM32F4xx_HAL_Driver\stm32f4xx_hal_flash_ex.o
LOAD Drivers\STM32F4xx_HAL_Driver\stm32f4xx_hal_flash.o
LOAD Drivers\STM32F4xx_HAL_Driver\stm32f4xx_hal_eth.o
LOAD Drivers\STM32F4xx_HAL_Driver\stm32f4xx_hal_dma_ex.o
LOAD Drivers\STM32F4xx_HAL_Driver\stm32f4xx_hal_dma.o
LOAD Drivers\STM32F4xx_HAL_Driver\stm32f4xx_hal_cortex.o
LOAD Drivers\STM32F4xx_HAL_Driver\stm32f4xx_hal.o
LOAD Drivers\CMSIS\system_stm32f4xx.o
LOAD Application\User\stm32f4xx_it.o
LOAD Application\User\stm32f4xx_hal_msp.o
LOAD Application\User\main.o
LOAD Application\User\lwip.o
LOAD Application\User\freertos.o
LOAD Application\User\ethernetif.o
LOAD Application\TrueSTUDIO\startup_stm32f407xx.o
START GROUP
LOAD c:/program files (x86)/atollic/truestudio for arm pro 5.3.1/armtools/bin/../lib/gcc/arm-atollic-eabi/4.8.3/../../../../arm-atollic-eabi/lib/armv7e-m/fpu\libc.a
LOAD c:/program files (x86)/atollic/truestudio for arm pro 5.3.1/armtools/bin/../lib/gcc/arm-atollic-eabi/4.8.3/../../../../arm-atollic-eabi/lib/armv7e-m/fpu\libm.a
END GROUP
                0x00001000                malloc_getpagesize_P = 0x1000
START GROUP
LOAD c:/program files (x86)/atollic/truestudio for arm pro 5.3.1/armtools/bin/../lib/gcc/arm-atollic-eabi/4.8.3/armv7e-m/fpu\libgcc.a
LOAD c:/program files (x86)/atollic/truestudio for arm pro 5.3.1/armtools/bin/../lib/gcc/arm-atollic-eabi/4.8.3/../../../../arm-atollic-eabi/lib/armv7e-m/fpu\libc.a
END GROUP
LOAD c:/program files (x86)/atollic/truestudio for arm pro 5.3.1/armtools/bin/../lib/gcc/arm-atollic-eabi/4.8.3/armv7e-m/fpu/crtend.o
LOAD c:/program files (x86)/atollic/truestudio for arm pro 5.3.1/armtools/bin/../lib/gcc/arm-atollic-eabi/4.8.3/armv7e-m/fpu/crtn.o
                0x20020000                _estack = 0x20020000
                0x00000000                _Min_Heap_Size = 0x0
                0x00000400                _Min_Stack_Size = 0x400

.isr_vector     0x08000000      0x188
                0x08000000                . = ALIGN (0x4)
 *(.isr_vector)
 .isr_vector    0x08000000      0x188 Application\TrueSTUDIO\startup_stm32f407xx.o
                0x08000000                g_pfnVectors
                0x08000188                . = ALIGN (0x4)

.text           0x08000188    0x10d10
                0x08000188                . = ALIGN (0x4)
 *(.text)
 .text          0x08000188       0x40 c:/program files (x86)/atollic/truestudio for arm pro 5.3.1/armtools/bin/../lib/gcc/arm-atollic-eabi/4.8.3/armv7e-m/fpu/crtbegin.o
 *(.text*)
 .text.udp_init
                0x080001c8        0xc Middlewares\LwIP\udp.o
                0x080001c8                udp_init
 .text.udp_new_port
                0x080001d4       0x74 Middlewares\LwIP\udp.o
 .text.udp_input
                0x08000248      0x278 Middlewares\LwIP\udp.o
                0x08000248                udp_input
 .text.udp_sendto_if
                0x080004c0      0x130 Middlewares\LwIP\udp.o
                0x080004c0                udp_sendto_if
 .text.udp_bind
                0x080005f0       0xc0 Middlewares\LwIP\udp.o
                0x080005f0                udp_bind
 .text.udp_connect
                0x080006b0       0x9c Middlewares\LwIP\udp.o
                0x080006b0                udp_connect
 .text.udp_disconnect
                0x0800074c       0x2c Middlewares\LwIP\udp.o
                0x0800074c                udp_disconnect
 .text.udp_recv
                0x08000778       0x24 Middlewares\LwIP\udp.o
                0x08000778                udp_recv
 .text.udp_remove
                0x0800079c       0x60 Middlewares\LwIP\udp.o
                0x0800079c                udp_remove
 .text.udp_new  0x080007fc       0x30 Middlewares\LwIP\udp.o
                0x080007fc                udp_new
 .text.tcpip_thread
                0x0800082c      0x114 Middlewares\LwIP\tcpip.o
 .text.tcpip_input
                0x08000940       0x68 Middlewares\LwIP\tcpip.o
                0x08000940                tcpip_input
 .text.tcpip_callback_with_block
                0x080009a8       0x7c Middlewares\LwIP\tcpip.o
                0x080009a8                tcpip_callback_with_block
 .text.tcpip_apimsg
                0x08000a24       0x4c Middlewares\LwIP\tcpip.o
                0x08000a24                tcpip_apimsg
 .text.tcpip_init
                0x08000a70       0x50 Middlewares\LwIP\tcpip.o
                0x08000a70                tcpip_init
 .text.tcp_output_alloc_header
                0x08000ac0       0xd0 Middlewares\LwIP\tcp_out.o
 .text.tcp_send_fin
                0x08000b90       0x80 Middlewares\LwIP\tcp_out.o
                0x08000b90                tcp_send_fin
 .text.tcp_create_segment
                0x08000c10      0x104 Middlewares\LwIP\tcp_out.o
 .text.tcp_pbuf_prealloc
                0x08000d14       0xa4 Middlewares\LwIP\tcp_out.o
 .text.tcp_write_checks
                0x08000db8       0xac Middlewares\LwIP\tcp_out.o
 .text.tcp_write
                0x08000e64      0x448 Middlewares\LwIP\tcp_out.o
                0x08000e64                tcp_write
 .text.tcp_enqueue_flags
                0x080012ac      0x184 Middlewares\LwIP\tcp_out.o
                0x080012ac                tcp_enqueue_flags
 .text.tcp_send_empty_ack
                0x08001430       0x6c Middlewares\LwIP\tcp_out.o
                0x08001430                tcp_send_empty_ack
 .text.tcp_output
                0x0800149c      0x2a8 Middlewares\LwIP\tcp_out.o
                0x0800149c                tcp_output
 .text.tcp_output_segment
                0x08001744      0x148 Middlewares\LwIP\tcp_out.o
 .text.tcp_rst  0x0800188c       0xb8 Middlewares\LwIP\tcp_out.o
                0x0800188c                tcp_rst
 .text.tcp_rexmit_rto
                0x08001944       0x60 Middlewares\LwIP\tcp_out.o
                0x08001944                tcp_rexmit_rto
 .text.tcp_rexmit
                0x080019a4       0x94 Middlewares\LwIP\tcp_out.o
                0x080019a4                tcp_rexmit
 .text.tcp_rexmit_fast
                0x08001a38       0xa4 Middlewares\LwIP\tcp_out.o
                0x08001a38                tcp_rexmit_fast
 .text.tcp_keepalive
                0x08001adc       0x50 Middlewares\LwIP\tcp_out.o
                0x08001adc                tcp_keepalive
 .text.tcp_zero_window_probe
                0x08001b2c       0xec Middlewares\LwIP\tcp_out.o
                0x08001b2c                tcp_zero_window_probe
 .text.tcp_input
                0x08001c18      0x5f8 Middlewares\LwIP\tcp_in.o
                0x08001c18                tcp_input
 .text.tcp_listen_input
                0x08002210      0x198 Middlewares\LwIP\tcp_in.o
 .text.tcp_timewait_input
                0x080023a8       0xdc Middlewares\LwIP\tcp_in.o
 .text.tcp_process
                0x08002484      0x6b8 Middlewares\LwIP\tcp_in.o
 .text.tcp_oos_insert_segment
                0x08002b3c       0xec Middlewares\LwIP\tcp_in.o
 .text.tcp_receive
                0x08002c28      0xe44 Middlewares\LwIP\tcp_in.o
 .text.tcp_parseopt
                0x08003a6c      0x100 Middlewares\LwIP\tcp_in.o
 .text.tcp_init
                0x08003b6c        0xc Middlewares\LwIP\tcp.o
                0x08003b6c                tcp_init
 .text.tcp_tmr  0x08003b78       0x2c Middlewares\LwIP\tcp.o
                0x08003b78                tcp_tmr
 .text.tcp_close_shutdown
                0x08003ba4      0x248 Middlewares\LwIP\tcp.o
 .text.tcp_close
                0x08003dec       0x30 Middlewares\LwIP\tcp.o
                0x08003dec                tcp_close
 .text.tcp_shutdown
                0x08003e1c       0x8c Middlewares\LwIP\tcp.o
                0x08003e1c                tcp_shutdown
 .text.tcp_abandon
                0x08003ea8       0xcc Middlewares\LwIP\tcp.o
                0x08003ea8                tcp_abandon
 .text.tcp_abort
                0x08003f74       0x18 Middlewares\LwIP\tcp.o
                0x08003f74                tcp_abort
 .text.tcp_update_rcv_ann_wnd
                0x08003f8c       0x80 Middlewares\LwIP\tcp.o
                0x08003f8c                tcp_update_rcv_ann_wnd
 .text.tcp_recved
                0x0800400c       0x58 Middlewares\LwIP\tcp.o
                0x0800400c                tcp_recved
 .text.tcp_new_port
                0x08004064       0x8c Middlewares\LwIP\tcp.o
 .text.tcp_connect
                0x080040f0      0x1b8 Middlewares\LwIP\tcp.o
                0x080040f0                tcp_connect
 .text.tcp_slowtmr
                0x080042a8      0x45c Middlewares\LwIP\tcp.o
                0x080042a8                tcp_slowtmr
 .text.tcp_fasttmr
                0x08004704       0xa0 Middlewares\LwIP\tcp.o
                0x08004704                tcp_fasttmr
 .text.tcp_process_refused_data
                0x080047a4       0xd0 Middlewares\LwIP\tcp.o
                0x080047a4                tcp_process_refused_data
 .text.tcp_segs_free
                0x08004874       0x28 Middlewares\LwIP\tcp.o
                0x08004874                tcp_segs_free
 .text.tcp_seg_free
                0x0800489c       0x30 Middlewares\LwIP\tcp.o
                0x0800489c                tcp_seg_free
 .text.tcp_seg_copy
                0x080048cc       0x38 Middlewares\LwIP\tcp.o
                0x080048cc                tcp_seg_copy
 .text.tcp_recv_null
                0x08004904       0x48 Middlewares\LwIP\tcp.o
                0x08004904                tcp_recv_null
 .text.tcp_kill_prio
                0x0800494c       0x80 Middlewares\LwIP\tcp.o
 .text.tcp_kill_timewait
                0x080049cc       0x5c Middlewares\LwIP\tcp.o
 .text.tcp_alloc
                0x08004a28      0x118 Middlewares\LwIP\tcp.o
                0x08004a28                tcp_alloc
 .text.tcp_new  0x08004b40       0x10 Middlewares\LwIP\tcp.o
                0x08004b40                tcp_new
 .text.tcp_arg  0x08004b50       0x1c Middlewares\LwIP\tcp.o
                0x08004b50                tcp_arg
 .text.tcp_recv
                0x08004b6c       0x1c Middlewares\LwIP\tcp.o
                0x08004b6c                tcp_recv
 .text.tcp_sent
                0x08004b88       0x1c Middlewares\LwIP\tcp.o
                0x08004b88                tcp_sent
 .text.tcp_err  0x08004ba4       0x1c Middlewares\LwIP\tcp.o
                0x08004ba4                tcp_err
 .text.tcp_accept
                0x08004bc0       0x1c Middlewares\LwIP\tcp.o
                0x08004bc0                tcp_accept
 .text.tcp_poll
                0x08004bdc       0x28 Middlewares\LwIP\tcp.o
                0x08004bdc                tcp_poll
 .text.tcp_pcb_purge
                0x08004c04       0x80 Middlewares\LwIP\tcp.o
                0x08004c04                tcp_pcb_purge
 .text.tcp_pcb_remove
                0x08004c84       0xa8 Middlewares\LwIP\tcp.o
                0x08004c84                tcp_pcb_remove
 .text.tcp_next_iss
                0x08004d2c       0x28 Middlewares\LwIP\tcp.o
                0x08004d2c                tcp_next_iss
 .text.tcp_eff_send_mss
                0x08004d54       0x40 Middlewares\LwIP\tcp.o
                0x08004d54                tcp_eff_send_mss
 .text.sys_mbox_new
                0x08004d94       0x34 Middlewares\LwIP\sys_arch.o
                0x08004d94                sys_mbox_new
 .text.sys_mbox_free
                0x08004dc8       0x24 Middlewares\LwIP\sys_arch.o
                0x08004dc8                sys_mbox_free
 .text.sys_mbox_post
                0x08004dec       0x2c Middlewares\LwIP\sys_arch.o
                0x08004dec                sys_mbox_post
 .text.sys_mbox_trypost
                0x08004e18       0x38 Middlewares\LwIP\sys_arch.o
                0x08004e18                sys_mbox_trypost
 .text.sys_arch_mbox_fetch
                0x08004e50       0x8c Middlewares\LwIP\sys_arch.o
                0x08004e50                sys_arch_mbox_fetch
 .text.sys_arch_mbox_tryfetch
                0x08004edc       0x3c Middlewares\LwIP\sys_arch.o
                0x08004edc                sys_arch_mbox_tryfetch
 .text.sys_mbox_valid
                0x08004f18       0x24 Middlewares\LwIP\sys_arch.o
                0x08004f18                sys_mbox_valid
 .text.sys_mbox_set_invalid
                0x08004f3c       0x18 Middlewares\LwIP\sys_arch.o
                0x08004f3c                sys_mbox_set_invalid
 .text.sys_sem_new
                0x08004f54       0x64 Middlewares\LwIP\sys_arch.o
                0x08004f54                sys_sem_new
 .text.sys_arch_sem_wait
                0x08004fb8       0x78 Middlewares\LwIP\sys_arch.o
                0x08004fb8                sys_arch_sem_wait
 .text.sys_sem_signal
                0x08005030       0x20 Middlewares\LwIP\sys_arch.o
                0x08005030                sys_sem_signal
 .text.sys_sem_free
                0x08005050       0x18 Middlewares\LwIP\sys_arch.o
                0x08005050                sys_sem_free
 .text.sys_sem_valid
                0x08005068       0x24 Middlewares\LwIP\sys_arch.o
                0x08005068                sys_sem_valid
 .text.sys_sem_set_invalid
                0x0800508c       0x18 Middlewares\LwIP\sys_arch.o
                0x0800508c                sys_sem_set_invalid
 .text.sys_init
                0x080050a4       0x18 Middlewares\LwIP\sys_arch.o
                0x080050a4                sys_init
 .text.sys_mutex_new
                0x080050bc       0x2c Middlewares\LwIP\sys_arch.o
                0x080050bc                sys_mutex_new
 .text.sys_mutex_lock
                0x080050e8       0x18 Middlewares\LwIP\sys_arch.o
                0x080050e8                sys_mutex_lock
 .text.sys_mutex_unlock
                0x08005100       0x20 Middlewares\LwIP\sys_arch.o
                0x08005100                sys_mutex_unlock
 .text.sys_thread_new
                0x08005120       0x58 Middlewares\LwIP\sys_arch.o
                0x08005120                sys_thread_new
 .text.lwip_socket_init
                0x08005178        0xc Middlewares\LwIP\sockets.o
                0x08005178                lwip_socket_init
 .text.get_socket
                0x08005184       0x48 Middlewares\LwIP\sockets.o
 .text.alloc_socket
                0x080051cc       0xfc Middlewares\LwIP\sockets.o
 .text.lwip_connect
                0x080052c8       0xd0 Middlewares\LwIP\sockets.o
                0x080052c8                lwip_connect
 .text.lwip_recvfrom
                0x08005398      0x2e4 Middlewares\LwIP\sockets.o
                0x08005398                lwip_recvfrom
 .text.lwip_recv
                0x0800567c       0x2c Middlewares\LwIP\sockets.o
                0x0800567c                lwip_recv
 .text.lwip_socket
                0x080056a8       0xb0 Middlewares\LwIP\sockets.o
                0x080056a8                lwip_socket
 .text.event_callback
                0x08005758      0x1b8 Middlewares\LwIP\sockets.o
 .text.raw_input
                0x08005910       0xc0 Middlewares\LwIP\raw.o
                0x08005910                raw_input
 .text.raw_connect
                0x080059d0       0x2c Middlewares\LwIP\raw.o
                0x080059d0                raw_connect
 .text.raw_recv
                0x080059fc       0x24 Middlewares\LwIP\raw.o
                0x080059fc                raw_recv
 .text.raw_remove
                0x08005a20       0x60 Middlewares\LwIP\raw.o
                0x08005a20                raw_remove
 .text.raw_new  0x08005a80       0x4c Middlewares\LwIP\raw.o
                0x08005a80                raw_new
 .text.pbuf_free_ooseq
                0x08005acc       0x48 Middlewares\LwIP\pbuf.o
 .text.pbuf_free_ooseq_callback
                0x08005b14       0x14 Middlewares\LwIP\pbuf.o
 .text.pbuf_pool_is_empty
                0x08005b28       0x3c Middlewares\LwIP\pbuf.o
 .text.pbuf_alloc
                0x08005b64      0x200 Middlewares\LwIP\pbuf.o
                0x08005b64                pbuf_alloc
 .text.pbuf_alloced_custom
                0x08005d64       0xb4 Middlewares\LwIP\pbuf.o
                0x08005d64                pbuf_alloced_custom
 .text.pbuf_realloc
                0x08005e18       0xc8 Middlewares\LwIP\pbuf.o
                0x08005e18                pbuf_realloc
 .text.pbuf_header
                0x08005ee0       0xe0 Middlewares\LwIP\pbuf.o
                0x08005ee0                pbuf_header
 .text.pbuf_free
                0x08005fc0       0xb8 Middlewares\LwIP\pbuf.o
                0x08005fc0                pbuf_free
 .text.pbuf_clen
                0x08006078       0x30 Middlewares\LwIP\pbuf.o
                0x08006078                pbuf_clen
 .text.pbuf_ref
                0x080060a8       0x24 Middlewares\LwIP\pbuf.o
                0x080060a8                pbuf_ref
 .text.pbuf_cat
                0x080060cc       0x5c Middlewares\LwIP\pbuf.o
                0x080060cc                pbuf_cat
 .text.pbuf_chain
                0x08006128       0x20 Middlewares\LwIP\pbuf.o
                0x08006128                pbuf_chain
 .text.pbuf_copy
                0x08006148      0x110 Middlewares\LwIP\pbuf.o
                0x08006148                pbuf_copy
 .text.pbuf_copy_partial
                0x08006258       0xc4 Middlewares\LwIP\pbuf.o
                0x08006258                pbuf_copy_partial
 .text.netif_init
                0x0800631c        0xc Middlewares\LwIP\netif.o
                0x0800631c                netif_init
 .text.netif_add
                0x08006328       0x88 Middlewares\LwIP\netif.o
                0x08006328                netif_add
 .text.netif_set_addr
                0x080063b0       0x2c Middlewares\LwIP\netif.o
                0x080063b0                netif_set_addr
 .text.netif_set_ipaddr
                0x080063dc       0xb0 Middlewares\LwIP\netif.o
                0x080063dc                netif_set_ipaddr
 .text.netif_set_gw
                0x0800648c       0x28 Middlewares\LwIP\netif.o
                0x0800648c                netif_set_gw
 .text.netif_set_netmask
                0x080064b4       0x28 Middlewares\LwIP\netif.o
                0x080064b4                netif_set_netmask
 .text.netif_set_default
                0x080064dc       0x1c Middlewares\LwIP\netif.o
                0x080064dc                netif_set_default
 .text.netif_set_up
                0x080064f8       0x58 Middlewares\LwIP\netif.o
                0x080064f8                netif_set_up
 .text.netif_set_down
                0x08006550       0x44 Middlewares\LwIP\netif.o
                0x08006550                netif_set_down
 .text.netbuf_delete
                0x08006594       0x3c Middlewares\LwIP\netbuf.o
                0x08006594                netbuf_delete
 .text.memp_init
                0x080065d0       0x98 Middlewares\LwIP\memp.o
                0x080065d0                memp_init
 .text.memp_malloc
                0x08006668       0x44 Middlewares\LwIP\memp.o
                0x08006668                memp_malloc
 .text.memp_free
                0x080066ac       0x3c Middlewares\LwIP\memp.o
                0x080066ac                memp_free
 .text.plug_holes
                0x080066e8       0xbc Middlewares\LwIP\mem.o
 .text.mem_init
                0x080067a4       0x80 Middlewares\LwIP\mem.o
                0x080067a4                mem_init
 .text.mem_free
                0x08006824       0x74 Middlewares\LwIP\mem.o
                0x08006824                mem_free
 .text.mem_trim
                0x08006898      0x188 Middlewares\LwIP\mem.o
                0x08006898                mem_trim
 .text.mem_malloc
                0x08006a20      0x164 Middlewares\LwIP\mem.o
                0x08006a20                mem_malloc
 .text.tcpip_tcp_timer
                0x08006b84       0x44 Middlewares\LwIP\lwip_timers.o
 .text.tcp_timer_needed
                0x08006bc8       0x40 Middlewares\LwIP\lwip_timers.o
                0x08006bc8                tcp_timer_needed
 .text.ip_reass_timer
                0x08006c08       0x24 Middlewares\LwIP\lwip_timers.o
 .text.arp_timer
                0x08006c2c       0x24 Middlewares\LwIP\lwip_timers.o
 .text.dhcp_timer_coarse
                0x08006c50       0x24 Middlewares\LwIP\lwip_timers.o
 .text.dhcp_timer_fine
                0x08006c74       0x24 Middlewares\LwIP\lwip_timers.o
 .text.sys_timeouts_init
                0x08006c98       0x48 Middlewares\LwIP\lwip_timers.o
                0x08006c98                sys_timeouts_init
 .text.sys_timeout
                0x08006ce0       0xdc Middlewares\LwIP\lwip_timers.o
                0x08006ce0                sys_timeout
 .text.sys_untimeout
                0x08006dbc       0x8c Middlewares\LwIP\lwip_timers.o
                0x08006dbc                sys_untimeout
 .text.sys_timeouts_mbox_fetch
                0x08006e48       0xb0 Middlewares\LwIP\lwip_timers.o
                0x08006e48                sys_timeouts_mbox_fetch
 .text.ip_reass_tmr
                0x08006ef8       0x54 Middlewares\LwIP\ip_frag.o
                0x08006ef8                ip_reass_tmr
 .text.ip_reass_free_complete_datagram
                0x08006f4c       0xc4 Middlewares\LwIP\ip_frag.o
 .text.ip_reass_remove_oldest_datagram
                0x08007010       0xb8 Middlewares\LwIP\ip_frag.o
 .text.ip_reass_enqueue_new_datagram
                0x080070c8       0x74 Middlewares\LwIP\ip_frag.o
 .text.ip_reass_dequeue_datagram
                0x0800713c       0x38 Middlewares\LwIP\ip_frag.o
 .text.ip_reass_chain_frag_into_datagram_and_validate
                0x08007174      0x1fc Middlewares\LwIP\ip_frag.o
 .text.ip_reass
                0x08007370      0x240 Middlewares\LwIP\ip_frag.o
                0x08007370                ip_reass
 .text.ip_frag_alloc_pbuf_custom_ref
                0x080075b0       0x10 Middlewares\LwIP\ip_frag.o
 .text.ip_frag_free_pbuf_custom_ref
                0x080075c0       0x18 Middlewares\LwIP\ip_frag.o
 .text.ipfrag_free_pbuf_custom
                0x080075d8       0x2c Middlewares\LwIP\ip_frag.o
 .text.ip_frag  0x08007604      0x1f8 Middlewares\LwIP\ip_frag.o
                0x08007604                ip_frag
 .text.ip4_addr_isbroadcast
                0x080077fc       0x78 Middlewares\LwIP\ip_addr.o
                0x080077fc                ip4_addr_isbroadcast
 .text.ip_route
                0x08007874       0x78 Middlewares\LwIP\ip.o
                0x08007874                ip_route
 .text.ip_input
                0x080078ec      0x240 Middlewares\LwIP\ip.o
                0x080078ec                ip_input
 .text.ip_output_if
                0x08007b2c      0x118 Middlewares\LwIP\ip.o
                0x08007b2c                ip_output_if
 .text.ip_output
                0x08007c44       0x48 Middlewares\LwIP\ip.o
                0x08007c44                ip_output
 .text.lwip_init
                0x08007c8c       0x28 Middlewares\LwIP\init.o
                0x08007c8c                lwip_init
 .text.lwip_standard_chksum
                0x08007cb4       0xb8 Middlewares\LwIP\inet_chksum.o
 .text.inet_chksum
                0x08007d6c       0x24 Middlewares\LwIP\inet_chksum.o
                0x08007d6c                inet_chksum
 .text.inet_chksum_pbuf
                0x08007d90       0x98 Middlewares\LwIP\inet_chksum.o
                0x08007d90                inet_chksum_pbuf
 .text.icmp_input
                0x08007e28      0x1c8 Middlewares\LwIP\icmp.o
                0x08007e28                icmp_input
 .text.icmp_dest_unreach
                0x08007ff0       0x20 Middlewares\LwIP\icmp.o
                0x08007ff0                icmp_dest_unreach
 .text.icmp_time_exceeded
                0x08008010       0x20 Middlewares\LwIP\icmp.o
                0x08008010                icmp_time_exceeded
 .text.icmp_send_response
                0x08008030       0xac Middlewares\LwIP\icmp.o
 .text.etharp_free_entry
                0x080080dc       0x64 Middlewares\LwIP\etharp.o
 .text.etharp_tmr
                0x08008140       0xdc Middlewares\LwIP\etharp.o
                0x08008140                etharp_tmr
 .text.etharp_find_entry
                0x0800821c      0x1fc Middlewares\LwIP\etharp.o
 .text.etharp_send_ip
                0x08008418       0x50 Middlewares\LwIP\etharp.o
 .text.etharp_update_arp_entry
                0x08008468      0x120 Middlewares\LwIP\etharp.o
 .text.etharp_cleanup_netif
                0x08008588       0x60 Middlewares\LwIP\etharp.o
                0x08008588                etharp_cleanup_netif
 .text.etharp_arp_input
                0x080085e8      0x18c Middlewares\LwIP\etharp.o
 .text.etharp_output_to_arp_index
                0x08008774       0xa8 Middlewares\LwIP\etharp.o
 .text.etharp_output
                0x0800881c      0x18c Middlewares\LwIP\etharp.o
                0x0800881c                etharp_output
 .text.etharp_query
                0x080089a8      0x224 Middlewares\LwIP\etharp.o
                0x080089a8                etharp_query
 .text.etharp_raw
                0x08008bcc       0xf4 Middlewares\LwIP\etharp.o
 .text.etharp_request
                0x08008cc0       0x44 Middlewares\LwIP\etharp.o
                0x08008cc0                etharp_request
 .text.ethernet_input
                0x08008d04       0xfc Middlewares\LwIP\etharp.o
                0x08008d04                ethernet_input
 .text.dhcp_handle_nak
                0x08008e00       0x44 Middlewares\LwIP\dhcp.o
 .text.dhcp_check
                0x08008e44       0x5c Middlewares\LwIP\dhcp.o
 .text.dhcp_handle_offer
                0x08008ea0       0x44 Middlewares\LwIP\dhcp.o
 .text.dhcp_select
                0x08008ee4      0x138 Middlewares\LwIP\dhcp.o
 .text.dhcp_coarse_tmr
                0x0800901c       0x5c Middlewares\LwIP\dhcp.o
                0x0800901c                dhcp_coarse_tmr
 .text.dhcp_fine_tmr
                0x08009078       0x60 Middlewares\LwIP\dhcp.o
                0x08009078                dhcp_fine_tmr
 .text.dhcp_timeout
                0x080090d8       0xc8 Middlewares\LwIP\dhcp.o
 .text.dhcp_t1_timeout
                0x080091a0       0x34 Middlewares\LwIP\dhcp.o
 .text.dhcp_t2_timeout
                0x080091d4       0x34 Middlewares\LwIP\dhcp.o
 .text.dhcp_handle_ack
                0x08009208       0xb8 Middlewares\LwIP\dhcp.o
 .text.dhcp_start
                0x080092c0      0x120 Middlewares\LwIP\dhcp.o
                0x080092c0                dhcp_start
 .text.dhcp_arp_reply
                0x080093e0       0x40 Middlewares\LwIP\dhcp.o
                0x080093e0                dhcp_arp_reply
 .text.dhcp_decline
                0x08009420       0xc4 Middlewares\LwIP\dhcp.o
 .text.dhcp_discover
                0x080094e4      0x104 Middlewares\LwIP\dhcp.o
 .text.dhcp_bind
                0x080095e8      0x14c Middlewares\LwIP\dhcp.o
 .text.dhcp_renew
                0x08009734       0xd4 Middlewares\LwIP\dhcp.o
                0x08009734                dhcp_renew
 .text.dhcp_rebind
                0x08009808       0xd4 Middlewares\LwIP\dhcp.o
 .text.dhcp_reboot
                0x080098dc       0xf0 Middlewares\LwIP\dhcp.o
 .text.dhcp_release
                0x080099cc      0x110 Middlewares\LwIP\dhcp.o
                0x080099cc                dhcp_release
 .text.dhcp_stop
                0x08009adc       0x54 Middlewares\LwIP\dhcp.o
                0x08009adc                dhcp_stop
 .text.dhcp_set_state
                0x08009b30       0x34 Middlewares\LwIP\dhcp.o
 .text.dhcp_option
                0x08009b64       0x4c Middlewares\LwIP\dhcp.o
 .text.dhcp_option_byte
                0x08009bb0       0x30 Middlewares\LwIP\dhcp.o
 .text.dhcp_option_short
                0x08009be0       0x50 Middlewares\LwIP\dhcp.o
 .text.dhcp_option_long
                0x08009c30       0x8c Middlewares\LwIP\dhcp.o
 .text.dhcp_parse_reply
                0x08009cbc      0x428 Middlewares\LwIP\dhcp.o
 .text.dhcp_recv
                0x0800a0e4      0x144 Middlewares\LwIP\dhcp.o
 .text.dhcp_create_msg
                0x0800a228      0x21c Middlewares\LwIP\dhcp.o
 .text.dhcp_delete_msg
                0x0800a444       0x34 Middlewares\LwIP\dhcp.o
 .text.dhcp_option_trailer
                0x0800a478       0x68 Middlewares\LwIP\dhcp.o
 .text.lwip_htons
                0x0800a4e0       0x2c Middlewares\LwIP\def.o
                0x0800a4e0                lwip_htons
 .text.lwip_ntohs
                0x0800a50c       0x1c Middlewares\LwIP\def.o
                0x0800a50c                lwip_ntohs
 .text.lwip_htonl
                0x0800a528       0x34 Middlewares\LwIP\def.o
                0x0800a528                lwip_htonl
 .text.lwip_ntohl
                0x0800a55c       0x18 Middlewares\LwIP\def.o
                0x0800a55c                lwip_ntohl
 .text.recv_raw
                0x0800a574       0xd8 Middlewares\LwIP\api_msg.o
 .text.recv_udp
                0x0800a64c       0xa4 Middlewares\LwIP\api_msg.o
 .text.recv_tcp
                0x0800a6f0       0xa4 Middlewares\LwIP\api_msg.o
 .text.poll_tcp
                0x0800a794       0x88 Middlewares\LwIP\api_msg.o
 .text.sent_tcp
                0x0800a81c       0x88 Middlewares\LwIP\api_msg.o
 .text.err_tcp  0x0800a8a4       0xf4 Middlewares\LwIP\api_msg.o
 .text.setup_tcp
                0x0800a998       0x50 Middlewares\LwIP\api_msg.o
 .text.pcb_new  0x0800a9e8       0xe4 Middlewares\LwIP\api_msg.o
 .text.do_newconn
                0x0800aacc       0x30 Middlewares\LwIP\api_msg.o
                0x0800aacc                do_newconn
 .text.netconn_alloc
                0x0800aafc       0xac Middlewares\LwIP\api_msg.o
                0x0800aafc                netconn_alloc
 .text.netconn_free
                0x0800aba8       0x40 Middlewares\LwIP\api_msg.o
                0x0800aba8                netconn_free
 .text.netconn_drain
                0x0800abe8       0xf8 Middlewares\LwIP\api_msg.o
 .text.do_close_internal
                0x0800ace0      0x194 Middlewares\LwIP\api_msg.o
 .text.do_delconn
                0x0800ae74      0x118 Middlewares\LwIP\api_msg.o
                0x0800ae74                do_delconn
 .text.do_connected
                0x0800af8c       0xc0 Middlewares\LwIP\api_msg.o
 .text.do_connect
                0x0800b04c      0x138 Middlewares\LwIP\api_msg.o
                0x0800b04c                do_connect
 .text.do_disconnect
                0x0800b184       0x44 Middlewares\LwIP\api_msg.o
                0x0800b184                do_disconnect
 .text.do_recv  0x0800b1c8       0x6c Middlewares\LwIP\api_msg.o
                0x0800b1c8                do_recv
 .text.do_writemore
                0x0800b234      0x1c8 Middlewares\LwIP\api_msg.o
 .text.do_getaddr
                0x0800b3fc       0xf0 Middlewares\LwIP\api_msg.o
                0x0800b3fc                do_getaddr
 .text.netconn_new_with_proto_and_callback
                0x0800b4ec       0x8c Middlewares\LwIP\api_lib.o
                0x0800b4ec                netconn_new_with_proto_and_callback
 .text.netconn_delete
                0x0800b578       0x3c Middlewares\LwIP\api_lib.o
                0x0800b578                netconn_delete
 .text.netconn_getaddr
                0x0800b5b4       0x78 Middlewares\LwIP\api_lib.o
                0x0800b5b4                netconn_getaddr
 .text.netconn_connect
                0x0800b62c       0x60 Middlewares\LwIP\api_lib.o
                0x0800b62c                netconn_connect
 .text.netconn_disconnect
                0x0800b68c       0x50 Middlewares\LwIP\api_lib.o
                0x0800b68c                netconn_disconnect
 .text.netconn_recv_data
                0x0800b6dc      0x110 Middlewares\LwIP\api_lib.o
 .text.netconn_recv_tcp_pbuf
                0x0800b7ec       0x30 Middlewares\LwIP\api_lib.o
                0x0800b7ec                netconn_recv_tcp_pbuf
 .text.netconn_recv
                0x0800b81c       0xc8 Middlewares\LwIP\api_lib.o
                0x0800b81c                netconn_recv
 .text.netconn_recved
                0x0800b8e4       0x44 Middlewares\LwIP\api_lib.o
                0x0800b8e4                netconn_recved
 .text.xTaskGenericCreate
                0x0800b928      0x1a0 Middlewares\FreeRTOS\tasks.o
                0x0800b928                xTaskGenericCreate
 .text.vTaskStartScheduler
                0x0800bac8       0x80 Middlewares\FreeRTOS\tasks.o
                0x0800bac8                vTaskStartScheduler
 .text.vTaskSuspendAll
                0x0800bb48       0x1c Middlewares\FreeRTOS\tasks.o
                0x0800bb48                vTaskSuspendAll
 .text.xTaskResumeAll
                0x0800bb64      0x128 Middlewares\FreeRTOS\tasks.o
                0x0800bb64                xTaskResumeAll
 .text.xTaskGetTickCount
                0x0800bc8c       0x20 Middlewares\FreeRTOS\tasks.o
                0x0800bc8c                xTaskGetTickCount
 .text.xTaskIncrementTick
                0x0800bcac      0x17c Middlewares\FreeRTOS\tasks.o
                0x0800bcac                xTaskIncrementTick
 .text.vTaskSwitchContext
                0x0800be28       0xb4 Middlewares\FreeRTOS\tasks.o
                0x0800be28                vTaskSwitchContext
 .text.vTaskPlaceOnEventList
                0x0800bedc       0x9c Middlewares\FreeRTOS\tasks.o
                0x0800bedc                vTaskPlaceOnEventList
 .text.xTaskRemoveFromEventList
                0x0800bf78       0xc4 Middlewares\FreeRTOS\tasks.o
                0x0800bf78                xTaskRemoveFromEventList
 .text.vTaskSetTimeOutState
                0x0800c03c       0x44 Middlewares\FreeRTOS\tasks.o
                0x0800c03c                vTaskSetTimeOutState
 .text.xTaskCheckForTimeOut
                0x0800c080       0xbc Middlewares\FreeRTOS\tasks.o
                0x0800c080                xTaskCheckForTimeOut
 .text.vTaskMissedYield
                0x0800c13c       0x18 Middlewares\FreeRTOS\tasks.o
                0x0800c13c                vTaskMissedYield
 .text.prvIdleTask
                0x0800c154       0x30 Middlewares\FreeRTOS\tasks.o
 .text.prvInitialiseTCBVariables
                0x0800c184       0xa4 Middlewares\FreeRTOS\tasks.o
 .text.prvInitialiseTaskLists
                0x0800c228       0x7c Middlewares\FreeRTOS\tasks.o
 .text.prvCheckTasksWaitingTermination
                0x0800c2a4       0x74 Middlewares\FreeRTOS\tasks.o
 .text.prvAddCurrentTaskToDelayedList
                0x0800c318       0x6c Middlewares\FreeRTOS\tasks.o
 .text.prvAllocateTCBAndStack
                0x0800c384       0x70 Middlewares\FreeRTOS\tasks.o
 .text.prvDeleteTCB
                0x0800c3f4       0x20 Middlewares\FreeRTOS\tasks.o
 .text.prvResetNextTaskUnblockTime
                0x0800c414       0x48 Middlewares\FreeRTOS\tasks.o
 .text.xTaskGetSchedulerState
                0x0800c45c       0x3c Middlewares\FreeRTOS\tasks.o
                0x0800c45c                xTaskGetSchedulerState
 .text.vTaskPriorityInherit
                0x0800c498       0xec Middlewares\FreeRTOS\tasks.o
                0x0800c498                vTaskPriorityInherit
 .text.xTaskPriorityDisinherit
                0x0800c584      0x108 Middlewares\FreeRTOS\tasks.o
                0x0800c584                xTaskPriorityDisinherit
 .text.pvTaskIncrementMutexHeldCount
                0x0800c68c       0x28 Middlewares\FreeRTOS\tasks.o
                0x0800c68c                pvTaskIncrementMutexHeldCount
 .text.xQueueGenericReset
                0x0800c6b4       0xd0 Middlewares\FreeRTOS\queue.o
                0x0800c6b4                xQueueGenericReset
 .text.xQueueGenericCreate
                0x0800c784       0xb8 Middlewares\FreeRTOS\queue.o
                0x0800c784                xQueueGenericCreate
 .text.xQueueCreateMutex
                0x0800c83c       0xa0 Middlewares\FreeRTOS\queue.o
                0x0800c83c                xQueueCreateMutex
 .text.xQueueCreateCountingSemaphore
                0x0800c8dc       0x7c Middlewares\FreeRTOS\queue.o
                0x0800c8dc                xQueueCreateCountingSemaphore
 .text.xQueueGenericSend
                0x0800c958      0x1ec Middlewares\FreeRTOS\queue.o
                0x0800c958                xQueueGenericSend
 .text.xQueueGiveFromISR
                0x0800cb44      0x100 Middlewares\FreeRTOS\queue.o
                0x0800cb44                xQueueGiveFromISR
 .text.xQueueGenericReceive
                0x0800cc44      0x20c Middlewares\FreeRTOS\queue.o
                0x0800cc44                xQueueGenericReceive
 .text.xQueueReceiveFromISR
                0x0800ce50       0xe8 Middlewares\FreeRTOS\queue.o
                0x0800ce50                xQueueReceiveFromISR
 .text.uxQueueMessagesWaiting
                0x0800cf38       0x3c Middlewares\FreeRTOS\queue.o
                0x0800cf38                uxQueueMessagesWaiting
 .text.vQueueDelete
                0x0800cf74       0x38 Middlewares\FreeRTOS\queue.o
                0x0800cf74                vQueueDelete
 .text.prvCopyDataToQueue
                0x0800cfac       0xdc Middlewares\FreeRTOS\queue.o
 .text.prvCopyDataFromQueue
                0x0800d088       0x4c Middlewares\FreeRTOS\queue.o
 .text.prvUnlockQueue
                0x0800d0d4       0x98 Middlewares\FreeRTOS\queue.o
 .text.prvIsQueueEmpty
                0x0800d16c       0x2c Middlewares\FreeRTOS\queue.o
 .text.prvIsQueueFull
                0x0800d198       0x30 Middlewares\FreeRTOS\queue.o
 .text.vQueueUnregisterQueue
                0x0800d1c8       0x44 Middlewares\FreeRTOS\queue.o
                0x0800d1c8                vQueueUnregisterQueue
 .text.pxPortInitialiseStack
                0x0800d20c       0x64 Middlewares\FreeRTOS\port.o
                0x0800d20c                pxPortInitialiseStack
 .text.prvTaskExitError
                0x0800d270       0x3c Middlewares\FreeRTOS\port.o
 .text.SVC_Handler
                0x0800d2ac       0x20 Middlewares\FreeRTOS\port.o
                0x0800d2ac                SVC_Handler
 .text.prvPortStartFirstTask
                0x0800d2cc       0x20 Middlewares\FreeRTOS\port.o
 .text.xPortStartScheduler
                0x0800d2ec      0x118 Middlewares\FreeRTOS\port.o
                0x0800d2ec                xPortStartScheduler
 .text.vPortEnterCritical
                0x0800d404       0x5c Middlewares\FreeRTOS\port.o
                0x0800d404                vPortEnterCritical
 .text.vPortExitCritical
                0x0800d460       0x4c Middlewares\FreeRTOS\port.o
                0x0800d460                vPortExitCritical
 .text.PendSV_Handler
                0x0800d4ac       0x60 Middlewares\FreeRTOS\port.o
                0x0800d4ac                PendSV_Handler
 .text.xPortSysTickHandler
                0x0800d50c       0x44 Middlewares\FreeRTOS\port.o
                0x0800d50c                xPortSysTickHandler
 .text.vPortSetupTimerInterrupt
                0x0800d550       0x34 Middlewares\FreeRTOS\port.o
                0x0800d550                vPortSetupTimerInterrupt
 .text.vPortEnableVFP
                0x0800d584       0x14 Middlewares\FreeRTOS\port.o
 .text.vPortValidateInterruptPriority
                0x0800d598       0x78 Middlewares\FreeRTOS\port.o
                0x0800d598                vPortValidateInterruptPriority
 .text.vListInitialise
                0x0800d610       0x40 Middlewares\FreeRTOS\list.o
                0x0800d610                vListInitialise
 .text.vListInitialiseItem
                0x0800d650       0x18 Middlewares\FreeRTOS\list.o
                0x0800d650                vListInitialiseItem
 .text.vListInsertEnd
                0x0800d668       0x48 Middlewares\FreeRTOS\list.o
                0x0800d668                vListInsertEnd
 .text.vListInsert
                0x0800d6b0       0x70 Middlewares\FreeRTOS\list.o
                0x0800d6b0                vListInsert
 .text.uxListRemove
                0x0800d720       0x54 Middlewares\FreeRTOS\list.o
                0x0800d720                uxListRemove
 .text.pvPortMalloc
                0x0800d774      0x184 Middlewares\FreeRTOS\heap_4.o
                0x0800d774                pvPortMalloc
 .text.vPortFree
                0x0800d8f8       0xb0 Middlewares\FreeRTOS\heap_4.o
                0x0800d8f8                vPortFree
 .text.prvHeapInit
                0x0800d9a8       0xc4 Middlewares\FreeRTOS\heap_4.o
 .text.prvInsertBlockIntoFreeList
                0x0800da6c       0xb0 Middlewares\FreeRTOS\heap_4.o
 .text.makeFreeRtosPriority
                0x0800db1c       0x30 Middlewares\FreeRTOS\cmsis_os.o
 .text.inHandlerMode
                0x0800db4c       0x24 Middlewares\FreeRTOS\cmsis_os.o
 .text.osKernelStart
                0x0800db70       0x10 Middlewares\FreeRTOS\cmsis_os.o
                0x0800db70                osKernelStart
 .text.osThreadCreate
                0x0800db80       0x58 Middlewares\FreeRTOS\cmsis_os.o
                0x0800db80                osThreadCreate
 .text.osSemaphoreCreate
                0x0800dbd8       0x48 Middlewares\FreeRTOS\cmsis_os.o
                0x0800dbd8                osSemaphoreCreate
 .text.osSemaphoreWait
                0x0800dc20       0xa0 Middlewares\FreeRTOS\cmsis_os.o
                0x0800dc20                osSemaphoreWait
 .text.osSemaphoreRelease
                0x0800dcc0       0x6c Middlewares\FreeRTOS\cmsis_os.o
                0x0800dcc0                osSemaphoreRelease
 .text.osSystickHandler
                0x0800dd2c       0x14 Middlewares\FreeRTOS\cmsis_os.o
                0x0800dd2c                osSystickHandler
 .text.HAL_RCC_OscConfig
                0x0800dd40      0x48c Drivers\STM32F4xx_HAL_Driver\stm32f4xx_hal_rcc.o
                0x0800dd40                HAL_RCC_OscConfig
 .text.HAL_RCC_ClockConfig
                0x0800e1cc      0x31c Drivers\STM32F4xx_HAL_Driver\stm32f4xx_hal_rcc.o
                0x0800e1cc                HAL_RCC_ClockConfig
 .text.HAL_RCC_GetSysClockFreq
                0x0800e4e8       0xfc Drivers\STM32F4xx_HAL_Driver\stm32f4xx_hal_rcc.o
                0x0800e4e8                HAL_RCC_GetSysClockFreq
 .text.HAL_RCC_GetHCLKFreq
                0x0800e5e4       0x4c Drivers\STM32F4xx_HAL_Driver\stm32f4xx_hal_rcc.o
                0x0800e5e4                HAL_RCC_GetHCLKFreq
 .text.HAL_GPIO_Init
                0x0800e630      0x340 Drivers\STM32F4xx_HAL_Driver\stm32f4xx_hal_gpio.o
                0x0800e630                HAL_GPIO_Init
 .text.HAL_ETH_Init
                0x0800e970      0x308 Drivers\STM32F4xx_HAL_Driver\stm32f4xx_hal_eth.o
                0x0800e970                HAL_ETH_Init
 .text.HAL_ETH_DMATxDescListInit
                0x0800ec78       0xd4 Drivers\STM32F4xx_HAL_Driver\stm32f4xx_hal_eth.o
                0x0800ec78                HAL_ETH_DMATxDescListInit
 .text.HAL_ETH_DMARxDescListInit
                0x0800ed4c       0xdc Drivers\STM32F4xx_HAL_Driver\stm32f4xx_hal_eth.o
                0x0800ed4c                HAL_ETH_DMARxDescListInit
 .text.HAL_ETH_TransmitFrame
                0x0800ee28      0x1d4 Drivers\STM32F4xx_HAL_Driver\stm32f4xx_hal_eth.o
                0x0800ee28                HAL_ETH_TransmitFrame
 .text.HAL_ETH_GetReceivedFrame_IT
                0x0800effc      0x114 Drivers\STM32F4xx_HAL_Driver\stm32f4xx_hal_eth.o
                0x0800effc                HAL_ETH_GetReceivedFrame_IT
 .text.HAL_ETH_IRQHandler
                0x0800f110       0xcc Drivers\STM32F4xx_HAL_Driver\stm32f4xx_hal_eth.o
                0x0800f110                HAL_ETH_IRQHandler
 .text.HAL_ETH_TxCpltCallback
                0x0800f1dc       0x14 Drivers\STM32F4xx_HAL_Driver\stm32f4xx_hal_eth.o
                0x0800f1dc                HAL_ETH_TxCpltCallback
 .text.HAL_ETH_ErrorCallback
                0x0800f1f0       0x14 Drivers\STM32F4xx_HAL_Driver\stm32f4xx_hal_eth.o
                0x0800f1f0                HAL_ETH_ErrorCallback
 .text.HAL_ETH_ReadPHYRegister
                0x0800f204       0xd0 Drivers\STM32F4xx_HAL_Driver\stm32f4xx_hal_eth.o
                0x0800f204                HAL_ETH_ReadPHYRegister
 .text.HAL_ETH_WritePHYRegister
                0x0800f2d4       0xcc Drivers\STM32F4xx_HAL_Driver\stm32f4xx_hal_eth.o
                0x0800f2d4                HAL_ETH_WritePHYRegister
 .text.HAL_ETH_Start
                0x0800f3a0       0x60 Drivers\STM32F4xx_HAL_Driver\stm32f4xx_hal_eth.o
                0x0800f3a0                HAL_ETH_Start
 .text.ETH_MACDMAConfig
                0x0800f400      0x390 Drivers\STM32F4xx_HAL_Driver\stm32f4xx_hal_eth.o
 .text.ETH_MACAddressConfig
                0x0800f790       0x68 Drivers\STM32F4xx_HAL_Driver\stm32f4xx_hal_eth.o
 .text.ETH_MACTransmissionEnable
                0x0800f7f8       0x38 Drivers\STM32F4xx_HAL_Driver\stm32f4xx_hal_eth.o
 .text.ETH_MACReceptionEnable
                0x0800f830       0x38 Drivers\STM32F4xx_HAL_Driver\stm32f4xx_hal_eth.o
 .text.ETH_DMATransmissionEnable
                0x0800f868       0x30 Drivers\STM32F4xx_HAL_Driver\stm32f4xx_hal_eth.o
 .text.ETH_DMAReceptionEnable
                0x0800f898       0x30 Drivers\STM32F4xx_HAL_Driver\stm32f4xx_hal_eth.o
 .text.ETH_FlushTransmitFIFO
                0x0800f8c8       0x50 Drivers\STM32F4xx_HAL_Driver\stm32f4xx_hal_eth.o
 .text.NVIC_SetPriorityGrouping
                0x0800f918       0x48 Drivers\STM32F4xx_HAL_Driver\stm32f4xx_hal_cortex.o
 .text.NVIC_GetPriorityGrouping
                0x0800f960       0x1c Drivers\STM32F4xx_HAL_Driver\stm32f4xx_hal_cortex.o
 .text.NVIC_EnableIRQ
                0x0800f97c       0x30 Drivers\STM32F4xx_HAL_Driver\stm32f4xx_hal_cortex.o
 .text.NVIC_SetPriority
                0x0800f9ac       0x54 Drivers\STM32F4xx_HAL_Driver\stm32f4xx_hal_cortex.o
 .text.NVIC_EncodePriority
                0x0800fa00       0x64 Drivers\STM32F4xx_HAL_Driver\stm32f4xx_hal_cortex.o
 .text.SysTick_Config
                0x0800fa64       0x44 Drivers\STM32F4xx_HAL_Driver\stm32f4xx_hal_cortex.o
 .text.HAL_NVIC_SetPriorityGrouping
                0x0800faa8       0x14 Drivers\STM32F4xx_HAL_Driver\stm32f4xx_hal_cortex.o
                0x0800faa8                HAL_NVIC_SetPriorityGrouping
 .text.HAL_NVIC_SetPriority
                0x0800fabc       0x38 Drivers\STM32F4xx_HAL_Driver\stm32f4xx_hal_cortex.o
                0x0800fabc                HAL_NVIC_SetPriority
 .text.HAL_NVIC_EnableIRQ
                0x0800faf4       0x1c Drivers\STM32F4xx_HAL_Driver\stm32f4xx_hal_cortex.o
                0x0800faf4                HAL_NVIC_EnableIRQ
 .text.HAL_SYSTICK_Config
                0x0800fb10       0x18 Drivers\STM32F4xx_HAL_Driver\stm32f4xx_hal_cortex.o
                0x0800fb10                HAL_SYSTICK_Config
 .text.HAL_SYSTICK_CLKSourceConfig
                0x0800fb28       0x38 Drivers\STM32F4xx_HAL_Driver\stm32f4xx_hal_cortex.o
                0x0800fb28                HAL_SYSTICK_CLKSourceConfig
 .text.HAL_Init
                0x0800fb60       0x44 Drivers\STM32F4xx_HAL_Driver\stm32f4xx_hal.o
                0x0800fb60                HAL_Init
 .text.HAL_InitTick
                0x0800fba4       0x38 Drivers\STM32F4xx_HAL_Driver\stm32f4xx_hal.o
                0x0800fba4                HAL_InitTick
 .text.HAL_IncTick
                0x0800fbdc       0x1c Drivers\STM32F4xx_HAL_Driver\stm32f4xx_hal.o
                0x0800fbdc                HAL_IncTick
 .text.HAL_GetTick
                0x0800fbf8       0x18 Drivers\STM32F4xx_HAL_Driver\stm32f4xx_hal.o
                0x0800fbf8                HAL_GetTick
 .text.HAL_Delay
                0x0800fc10       0x2c Drivers\STM32F4xx_HAL_Driver\stm32f4xx_hal.o
                0x0800fc10                HAL_Delay
 .text.SystemInit
                0x0800fc3c       0x6c Drivers\CMSIS\system_stm32f4xx.o
                0x0800fc3c                SystemInit
 .text.SysTick_Handler
                0x0800fca8       0x10 Application\User\stm32f4xx_it.o
                0x0800fca8                SysTick_Handler
 .text.ETH_IRQHandler
                0x0800fcb8       0x10 Application\User\stm32f4xx_it.o
                0x0800fcb8                ETH_IRQHandler
 .text.HAL_MspInit
                0x0800fcc8       0x18 Application\User\stm32f4xx_hal_msp.o
                0x0800fcc8                HAL_MspInit
 .text.main     0x0800fce0       0x40 Application\User\main.o
                0x0800fce0                main
 .text.SystemClock_Config
                0x0800fd20       0xc0 Application\User\main.o
                0x0800fd20                SystemClock_Config
 .text.MX_GPIO_Init
                0x0800fde0      0x250 Application\User\main.o
 .text.StartDefaultTask
                0x08010030       0x60 Application\User\main.o
                0x08010030                StartDefaultTask
 .text.MX_LWIP_Init
                0x08010090       0x7c Application\User\lwip.o
                0x08010090                MX_LWIP_Init
 .text.HAL_ETH_MspInit
                0x0801010c       0xe8 Application\User\ethernetif.o
                0x0801010c                HAL_ETH_MspInit
 .text.HAL_ETH_RxCpltCallback
                0x080101f4       0x1c Application\User\ethernetif.o
                0x080101f4                HAL_ETH_RxCpltCallback
 .text.low_level_init
                0x08010210      0x1a8 Application\User\ethernetif.o
 .text.low_level_output
                0x080103b8      0x144 Application\User\ethernetif.o
 .text.low_level_input
                0x080104fc      0x168 Application\User\ethernetif.o
 .text.ethernetif_input
                0x08010664       0x50 Application\User\ethernetif.o
                0x08010664                ethernetif_input
 .text.ethernetif_init
                0x080106b4       0x40 Application\User\ethernetif.o
                0x080106b4                ethernetif_init
 .text.Reset_Handler
                0x080106f4       0x58 Application\TrueSTUDIO\startup_stm32f407xx.o
                0x080106f4                Reset_Handler
 .text.Default_Handler
                0x0801074c        0x4 Application\TrueSTUDIO\startup_stm32f407xx.o
                0x0801074c                RTC_Alarm_IRQHandler
                0x0801074c                HASH_RNG_IRQHandler
                0x0801074c                EXTI2_IRQHandler
                0x0801074c                TIM8_CC_IRQHandler
                0x0801074c                DebugMon_Handler
                0x0801074c                TIM1_CC_IRQHandler
                0x0801074c                DMA2_Stream5_IRQHandler
                0x0801074c                HardFault_Handler
                0x0801074c                DMA1_Stream5_IRQHandler
                0x0801074c                PVD_IRQHandler
                0x0801074c                SDIO_IRQHandler
                0x0801074c                TAMP_STAMP_IRQHandler
                0x0801074c                NMI_Handler
                0x0801074c                CAN2_RX1_IRQHandler
                0x0801074c                EXTI3_IRQHandler
                0x0801074c                TIM8_TRG_COM_TIM14_IRQHandler
                0x0801074c                TIM1_UP_TIM10_IRQHandler
                0x0801074c                TIM8_UP_TIM13_IRQHandler
                0x0801074c                I2C3_ER_IRQHandler
                0x0801074c                EXTI0_IRQHandler
                0x0801074c                I2C2_EV_IRQHandler
                0x0801074c                DMA1_Stream2_IRQHandler
                0x0801074c                CAN1_RX0_IRQHandler
                0x0801074c                FPU_IRQHandler
                0x0801074c                OTG_HS_WKUP_IRQHandler
                0x0801074c                UsageFault_Handler
                0x0801074c                CAN2_SCE_IRQHandler
                0x0801074c                DMA2_Stream2_IRQHandler
                0x0801074c                SPI1_IRQHandler
                0x0801074c                TIM6_DAC_IRQHandler
                0x0801074c                TIM1_BRK_TIM9_IRQHandler
                0x0801074c                DCMI_IRQHandler
                0x0801074c                CAN2_RX0_IRQHandler
                0x0801074c                DMA2_Stream3_IRQHandler
                0x0801074c                USART6_IRQHandler
                0x0801074c                USART3_IRQHandler
                0x0801074c                CAN1_RX1_IRQHandler
                0x0801074c                UART5_IRQHandler
                0x0801074c                DMA2_Stream0_IRQHandler
                0x0801074c                TIM4_IRQHandler
                0x0801074c                I2C1_EV_IRQHandler
                0x0801074c                DMA1_Stream6_IRQHandler
                0x0801074c                DMA1_Stream1_IRQHandler
                0x0801074c                UART4_IRQHandler
                0x0801074c                TIM3_IRQHandler
                0x0801074c                RCC_IRQHandler
                0x0801074c                TIM8_BRK_TIM12_IRQHandler
                0x0801074c                Default_Handler
                0x0801074c                EXTI15_10_IRQHandler
                0x0801074c                ADC_IRQHandler
                0x0801074c                DMA1_Stream7_IRQHandler
                0x0801074c                TIM7_IRQHandler
                0x0801074c                CAN2_TX_IRQHandler
                0x0801074c                TIM5_IRQHandler
                0x0801074c                DMA2_Stream7_IRQHandler
                0x0801074c                I2C3_EV_IRQHandler
                0x0801074c                EXTI9_5_IRQHandler
                0x0801074c                RTC_WKUP_IRQHandler
                0x0801074c                ETH_WKUP_IRQHandler
                0x0801074c                SPI2_IRQHandler
                0x0801074c                OTG_HS_EP1_IN_IRQHandler
                0x0801074c                MemManage_Handler
                0x0801074c                DMA1_Stream0_IRQHandler
                0x0801074c                CAN1_TX_IRQHandler
                0x0801074c                EXTI4_IRQHandler
                0x0801074c                FSMC_IRQHandler
                0x0801074c                OTG_HS_EP1_OUT_IRQHandler
                0x0801074c                WWDG_IRQHandler
                0x0801074c                TIM2_IRQHandler
                0x0801074c                OTG_FS_WKUP_IRQHandler
                0x0801074c                TIM1_TRG_COM_TIM11_IRQHandler
                0x0801074c                OTG_HS_IRQHandler
                0x0801074c                EXTI1_IRQHandler
                0x0801074c                USART2_IRQHandler
                0x0801074c                I2C2_ER_IRQHandler
                0x0801074c                DMA2_Stream1_IRQHandler
                0x0801074c                CAN1_SCE_IRQHandler
                0x0801074c                FLASH_IRQHandler
                0x0801074c                DMA2_Stream4_IRQHandler
                0x0801074c                BusFault_Handler
                0x0801074c                USART1_IRQHandler
                0x0801074c                OTG_FS_IRQHandler
                0x0801074c                SPI3_IRQHandler
                0x0801074c                DMA1_Stream4_IRQHandler
                0x0801074c                I2C1_ER_IRQHandler
                0x0801074c                DMA2_Stream6_IRQHandler
                0x0801074c                DMA1_Stream3_IRQHandler
 .text.__libc_init_array
                0x08010750       0x4c c:/program files (x86)/atollic/truestudio for arm pro 5.3.1/armtools/bin/../lib/gcc/arm-atollic-eabi/4.8.3/../../../../arm-atollic-eabi/lib/armv7e-m/fpu\libc.a(lib_a-init.o)
                0x08010750                __libc_init_array
 .text.malloc   0x0801079c       0x10 c:/program files (x86)/atollic/truestudio for arm pro 5.3.1/armtools/bin/../lib/gcc/arm-atollic-eabi/4.8.3/../../../../arm-atollic-eabi/lib/armv7e-m/fpu\libc.a(lib_a-malloc.o)
                0x0801079c                malloc
 .text._malloc_r
                0x080107ac      0x424 c:/program files (x86)/atollic/truestudio for arm pro 5.3.1/armtools/bin/../lib/gcc/arm-atollic-eabi/4.8.3/../../../../arm-atollic-eabi/lib/armv7e-m/fpu\libc.a(lib_a-mallocr.o)
                0x080107ac                _malloc_r
 .text.memcmp   0x08010bd0       0x1e c:/program files (x86)/atollic/truestudio for arm pro 5.3.1/armtools/bin/../lib/gcc/arm-atollic-eabi/4.8.3/../../../../arm-atollic-eabi/lib/armv7e-m/fpu\libc.a(lib_a-memcmp.o)
                0x08010bd0                memcmp
 .text.memcpy   0x08010bee       0x12 c:/program files (x86)/atollic/truestudio for arm pro 5.3.1/armtools/bin/../lib/gcc/arm-atollic-eabi/4.8.3/../../../../arm-atollic-eabi/lib/armv7e-m/fpu\libc.a(lib_a-memcpy-stub.o)
                0x08010bee                memcpy
 .text.memset   0x08010c00       0x10 c:/program files (x86)/atollic/truestudio for arm pro 5.3.1/armtools/bin/../lib/gcc/arm-atollic-eabi/4.8.3/../../../../arm-atollic-eabi/lib/armv7e-m/fpu\libc.a(lib_a-memset.o)
                0x08010c00                memset
 .text.__malloc_lock
                0x08010c10        0x2 c:/program files (x86)/atollic/truestudio for arm pro 5.3.1/armtools/bin/../lib/gcc/arm-atollic-eabi/4.8.3/../../../../arm-atollic-eabi/lib/armv7e-m/fpu\libc.a(lib_a-mlock.o)
                0x08010c10                __malloc_lock
 .text.__malloc_unlock
                0x08010c12        0x2 c:/program files (x86)/atollic/truestudio for arm pro 5.3.1/armtools/bin/../lib/gcc/arm-atollic-eabi/4.8.3/../../../../arm-atollic-eabi/lib/armv7e-m/fpu\libc.a(lib_a-mlock.o)
                0x08010c12                __malloc_unlock
 .text._sbrk_r  0x08010c14       0x20 c:/program files (x86)/atollic/truestudio for arm pro 5.3.1/armtools/bin/../lib/gcc/arm-atollic-eabi/4.8.3/../../../../arm-atollic-eabi/lib/armv7e-m/fpu\libc.a(lib_a-sbrkr.o)
                0x08010c14                _sbrk_r
 .text._sbrk    0x08010c34       0x34 c:/program files (x86)/atollic/truestudio for arm pro 5.3.1/armtools/bin/../lib/gcc/arm-atollic-eabi/4.8.3/../../../../arm-atollic-eabi/lib/armv7e-m/fpu\libc.a(lib_a-syscalls.o)
                0x08010c34                _sbrk
 .text._malloc_trim_r
                0x08010c68       0xa8 c:/program files (x86)/atollic/truestudio for arm pro 5.3.1/armtools/bin/../lib/gcc/arm-atollic-eabi/4.8.3/../../../../arm-atollic-eabi/lib/armv7e-m/fpu\libc.a(lib_a-freer.o)
                0x08010c68                _malloc_trim_r
 .text._free_r  0x08010d10      0x170 c:/program files (x86)/atollic/truestudio for arm pro 5.3.1/armtools/bin/../lib/gcc/arm-atollic-eabi/4.8.3/../../../../arm-atollic-eabi/lib/armv7e-m/fpu\libc.a(lib_a-freer.o)
                0x08010d10                _free_r
 *(.glue_7)
 .glue_7        0x00000000        0x0 linker stubs
 *(.glue_7t)
 .glue_7t       0x00000000        0x0 linker stubs
 *(.eh_frame)
 .eh_frame      0x08010e80        0x0 c:/program files (x86)/atollic/truestudio for arm pro 5.3.1/armtools/bin/../lib/gcc/arm-atollic-eabi/4.8.3/armv7e-m/fpu/crtbegin.o
 *(.init)
 .init          0x08010e80        0x4 c:/program files (x86)/atollic/truestudio for arm pro 5.3.1/armtools/bin/../lib/gcc/arm-atollic-eabi/4.8.3/armv7e-m/fpu/crti.o
                0x08010e80                _init
 .init          0x08010e84        0x8 c:/program files (x86)/atollic/truestudio for arm pro 5.3.1/armtools/bin/../lib/gcc/arm-atollic-eabi/4.8.3/armv7e-m/fpu/crtn.o
 *(.fini)
 .fini          0x08010e8c        0x4 c:/program files (x86)/atollic/truestudio for arm pro 5.3.1/armtools/bin/../lib/gcc/arm-atollic-eabi/4.8.3/armv7e-m/fpu/crti.o
                0x08010e8c                _fini
 .fini          0x08010e90        0x8 c:/program files (x86)/atollic/truestudio for arm pro 5.3.1/armtools/bin/../lib/gcc/arm-atollic-eabi/4.8.3/armv7e-m/fpu/crtn.o
                0x08010e98                . = ALIGN (0x4)
                0x08010e98                _etext = .

.vfp11_veneer   0x08010e98        0x0
 .vfp11_veneer  0x00000000        0x0 linker stubs

.v4_bx          0x08010e98        0x0
 .v4_bx         0x00000000        0x0 linker stubs

.iplt           0x08010e98        0x0
 .iplt          0x00000000        0x0 c:/program files (x86)/atollic/truestudio for arm pro 5.3.1/armtools/bin/../lib/gcc/arm-atollic-eabi/4.8.3/armv7e-m/fpu/crtbegin.o

.rodata         0x08010e98      0x120
                0x08010e98                . = ALIGN (0x4)
 *(.rodata)
 .rodata        0x08010e98       0x10 Middlewares\LwIP\tcpip.o
 .rodata        0x08010ea8        0x8 Middlewares\FreeRTOS\tasks.o
 .rodata        0x08010eb0       0x20 Application\User\main.o
 .rodata        0x08010ed0       0x1c Application\User\ethernetif.o
 *(.rodata*)
 .rodata.tcp_backoff
                0x08010eec       0x10 Middlewares\LwIP\tcp.o
                0x08010eec                tcp_backoff
 .rodata.tcp_persist_backoff
                0x08010efc        0x8 Middlewares\LwIP\tcp.o
                0x08010efc                tcp_persist_backoff
 .rodata.tcp_pcb_lists
                0x08010f04       0x10 Middlewares\LwIP\tcp.o
                0x08010f04                tcp_pcb_lists
 .rodata.err_to_errno_table
                0x08010f14       0x40 Middlewares\LwIP\sockets.o
 .rodata.memp_sizes
                0x08010f54       0x1c Middlewares\LwIP\memp.o
 .rodata.memp_num
                0x08010f70       0x1c Middlewares\LwIP\memp.o
 .rodata.ip_addr_any
                0x08010f8c        0x4 Middlewares\LwIP\ip_addr.o
                0x08010f8c                ip_addr_any
 .rodata.ip_addr_broadcast
                0x08010f90        0x4 Middlewares\LwIP\ip_addr.o
                0x08010f90                ip_addr_broadcast
 .rodata.ethbroadcast
                0x08010f94        0x8 Middlewares\LwIP\etharp.o
                0x08010f94                ethbroadcast
 .rodata.ethzero
                0x08010f9c        0x8 Middlewares\LwIP\etharp.o
                0x08010f9c                ethzero
 .rodata.APBAHBPrescTable
                0x08010fa4       0x10 Drivers\STM32F4xx_HAL_Driver\stm32f4xx_hal_rcc.o
                0x08010fa4                APBAHBPrescTable
 .rodata.str1.1
                0x08010fb4        0x2 c:/program files (x86)/atollic/truestudio for arm pro 5.3.1/armtools/bin/../lib/gcc/arm-atollic-eabi/4.8.3/../../../../arm-atollic-eabi/lib/armv7e-m/fpu\libc.a(lib_a-impure.o)
                0x08010fb8                . = ALIGN (0x4)
 *fill*         0x08010fb6        0x2 

.rel.dyn        0x08010fb8        0x0
 .rel.iplt      0x00000000        0x0 c:/program files (x86)/atollic/truestudio for arm pro 5.3.1/armtools/bin/../lib/gcc/arm-atollic-eabi/4.8.3/armv7e-m/fpu/crtbegin.o

.ARM.extab
 *(.ARM.extab* .gnu.linkonce.armextab.*)

.ARM            0x08010fb8        0x0
                0x08010fb8                __exidx_start = .
 *(.ARM.exidx*)
                0x08010fb8                __exidx_end = .

.preinit_array  0x08010fb8        0x0
                0x08010fb8                PROVIDE (__preinit_array_start, .)
 *(.preinit_array*)
                0x08010fb8                PROVIDE (__preinit_array_end, .)

.init_array     0x08010fb8        0x4
                0x08010fb8                PROVIDE (__init_array_start, .)
 *(SORT(.init_array.*))
 *(.init_array*)
 .init_array    0x08010fb8        0x4 c:/program files (x86)/atollic/truestudio for arm pro 5.3.1/armtools/bin/../lib/gcc/arm-atollic-eabi/4.8.3/armv7e-m/fpu/crtbegin.o
                0x08010fbc                PROVIDE (__init_array_end, .)

.fini_array     0x08010fbc        0x4
                0x08010fbc                PROVIDE (__fini_array_start, .)
 *(SORT(.fini_array.*))
 *(.fini_array*)
 .fini_array    0x08010fbc        0x4 c:/program files (x86)/atollic/truestudio for arm pro 5.3.1/armtools/bin/../lib/gcc/arm-atollic-eabi/4.8.3/armv7e-m/fpu/crtbegin.o
                0x08010fc0                PROVIDE (__fini_array_end, .)
                0x08010fc0                _sidata = LOADADDR (.data)

.data           0x20000000      0x51c load address 0x08010fc0
                0x20000000                . = ALIGN (0x4)
                0x20000000                _sdata = .
 *(.data)
 *(.data*)
 .data.udp_port
                0x20000000        0x2 Middlewares\LwIP\udp.o
 .data.tcp_port
                0x20000002        0x2 Middlewares\LwIP\tcp.o
 .data.iss.7980
                0x20000004        0x4 Middlewares\LwIP\tcp.o
 .data.xid.7836
                0x20000008        0x4 Middlewares\LwIP\dhcp.o
 .data.xNextTaskUnblockTime
                0x2000000c        0x4 Middlewares\FreeRTOS\tasks.o
 .data.uxCriticalNesting
                0x20000010        0x4 Middlewares\FreeRTOS\port.o
 .data.SystemCoreClock
                0x20000014        0x4 Drivers\CMSIS\system_stm32f4xx.o
                0x20000014                SystemCoreClock
 .data.__malloc_av_
                0x20000018      0x408 c:/program files (x86)/atollic/truestudio for arm pro 5.3.1/armtools/bin/../lib/gcc/arm-atollic-eabi/4.8.3/../../../../arm-atollic-eabi/lib/armv7e-m/fpu\libc.a(lib_a-mallocr.o)
                0x20000018                __malloc_av_
 .data.__malloc_trim_threshold
                0x20000420        0x4 c:/program files (x86)/atollic/truestudio for arm pro 5.3.1/armtools/bin/../lib/gcc/arm-atollic-eabi/4.8.3/../../../../arm-atollic-eabi/lib/armv7e-m/fpu\libc.a(lib_a-mallocr.o)
                0x20000420                __malloc_trim_threshold
 .data.__malloc_sbrk_base
                0x20000424        0x4 c:/program files (x86)/atollic/truestudio for arm pro 5.3.1/armtools/bin/../lib/gcc/arm-atollic-eabi/4.8.3/../../../../arm-atollic-eabi/lib/armv7e-m/fpu\libc.a(lib_a-mallocr.o)
                0x20000424                __malloc_sbrk_base
 .data.impure_data
                0x20000428       0xf0 c:/program files (x86)/atollic/truestudio for arm pro 5.3.1/armtools/bin/../lib/gcc/arm-atollic-eabi/4.8.3/../../../../arm-atollic-eabi/lib/armv7e-m/fpu\libc.a(lib_a-impure.o)
 .data._impure_ptr
                0x20000518        0x4 c:/program files (x86)/atollic/truestudio for arm pro 5.3.1/armtools/bin/../lib/gcc/arm-atollic-eabi/4.8.3/../../../../arm-atollic-eabi/lib/armv7e-m/fpu\libc.a(lib_a-impure.o)
                0x20000518                _impure_ptr
                0x2000051c                . = ALIGN (0x4)
                0x2000051c                _edata = .
                0x080114dc                _siccmram = LOADADDR (.ccmram)

.igot.plt       0x2000051c        0x0 load address 0x080114dc
 .igot.plt      0x00000000        0x0 c:/program files (x86)/atollic/truestudio for arm pro 5.3.1/armtools/bin/../lib/gcc/arm-atollic-eabi/4.8.3/armv7e-m/fpu/crtbegin.o

.ccmram         0x10000000        0x0 load address 0x080114dc
                0x10000000                . = ALIGN (0x4)
                0x10000000                _sccmram = .
 *(.ccmram)
 *(.ccmram*)
                0x10000000                . = ALIGN (0x4)
                0x10000000                _eccmram = .
                0x10000000                . = ALIGN (0x4)

.bss            0x2000051c     0xa8dc
                0x2000051c                _sbss = .
                0x2000051c                __bss_start__ = _sbss
 *(.bss)
 .bss           0x2000051c       0x1c c:/program files (x86)/atollic/truestudio for arm pro 5.3.1/armtools/bin/../lib/gcc/arm-atollic-eabi/4.8.3/armv7e-m/fpu/crtbegin.o
 *(.bss*)
 .bss.tcpip_init_done
                0x20000538        0x4 Middlewares\LwIP\tcpip.o
 .bss.tcpip_init_done_arg
                0x2000053c        0x4 Middlewares\LwIP\tcpip.o
 .bss.mbox      0x20000540        0x4 Middlewares\LwIP\tcpip.o
 .bss.inseg     0x20000544       0x10 Middlewares\LwIP\tcp_in.o
 .bss.tcphdr    0x20000554        0x4 Middlewares\LwIP\tcp_in.o
 .bss.iphdr     0x20000558        0x4 Middlewares\LwIP\tcp_in.o
 .bss.seqno     0x2000055c        0x4 Middlewares\LwIP\tcp_in.o
 .bss.ackno     0x20000560        0x4 Middlewares\LwIP\tcp_in.o
 .bss.flags     0x20000564        0x1 Middlewares\LwIP\tcp_in.o
 *fill*         0x20000565        0x1 
 .bss.tcplen    0x20000566        0x2 Middlewares\LwIP\tcp_in.o
 .bss.recv_flags
                0x20000568        0x1 Middlewares\LwIP\tcp_in.o
 *fill*         0x20000569        0x3 
 .bss.recv_data
                0x2000056c        0x4 Middlewares\LwIP\tcp_in.o
 .bss.tcp_timer
                0x20000570        0x1 Middlewares\LwIP\tcp.o
 .bss.tcp_timer_ctr
                0x20000571        0x1 Middlewares\LwIP\tcp.o
 .bss.s_nextthread
                0x20000572        0x2 Middlewares\LwIP\sys_arch.o
 .bss.sockets   0x20000574       0x60 Middlewares\LwIP\sockets.o
 .bss.select_cb_list
                0x200005d4        0x4 Middlewares\LwIP\sockets.o
 .bss.select_cb_ctr
                0x200005d8        0x4 Middlewares\LwIP\sockets.o
 .bss.raw_pcbs  0x200005dc        0x4 Middlewares\LwIP\raw.o
 .bss.netif_num
                0x200005e0        0x1 Middlewares\LwIP\netif.o
 *fill*         0x200005e1        0x3 
 .bss.memp_tab  0x200005e4       0x38 Middlewares\LwIP\memp.o
 .bss.memp_memory
                0x2000061c     0x3134 Middlewares\LwIP\memp.o
 .bss.ram       0x20003750        0x4 Middlewares\LwIP\mem.o
 .bss.ram_end   0x20003754        0x4 Middlewares\LwIP\mem.o
 .bss.lfree     0x20003758        0x4 Middlewares\LwIP\mem.o
 .bss.mem_mutex
                0x2000375c        0x4 Middlewares\LwIP\mem.o
 .bss.next_timeout
                0x20003760        0x4 Middlewares\LwIP\lwip_timers.o
 .bss.tcpip_tcp_timer_active
                0x20003764        0x4 Middlewares\LwIP\lwip_timers.o
 .bss.reassdatagrams
                0x20003768        0x4 Middlewares\LwIP\ip_frag.o
 .bss.ip_reass_pbufcount
                0x2000376c        0x2 Middlewares\LwIP\ip_frag.o
 .bss.ip_id     0x2000376e        0x2 Middlewares\LwIP\ip.o
 .bss.arp_table
                0x20003770       0xc8 Middlewares\LwIP\etharp.o
 .bss.etharp_cached_entry
                0x20003838        0x1 Middlewares\LwIP\etharp.o
 *fill*         0x20003839        0x3 
 .bss.pxCurrentTCB
                0x2000383c        0x4 Middlewares\FreeRTOS\tasks.o
                0x2000383c                pxCurrentTCB
 .bss.pxReadyTasksLists
                0x20003840       0x8c Middlewares\FreeRTOS\tasks.o
 .bss.xDelayedTaskList1
                0x200038cc       0x14 Middlewares\FreeRTOS\tasks.o
 .bss.xDelayedTaskList2
                0x200038e0       0x14 Middlewares\FreeRTOS\tasks.o
 .bss.pxDelayedTaskList
                0x200038f4        0x4 Middlewares\FreeRTOS\tasks.o
 .bss.pxOverflowDelayedTaskList
                0x200038f8        0x4 Middlewares\FreeRTOS\tasks.o
 .bss.xPendingReadyList
                0x200038fc       0x14 Middlewares\FreeRTOS\tasks.o
 .bss.xTasksWaitingTermination
                0x20003910       0x14 Middlewares\FreeRTOS\tasks.o
 .bss.uxTasksDeleted
                0x20003924        0x4 Middlewares\FreeRTOS\tasks.o
 .bss.xSuspendedTaskList
                0x20003928       0x14 Middlewares\FreeRTOS\tasks.o
 .bss.uxCurrentNumberOfTasks
                0x2000393c        0x4 Middlewares\FreeRTOS\tasks.o
 .bss.xTickCount
                0x20003940        0x4 Middlewares\FreeRTOS\tasks.o
 .bss.uxTopReadyPriority
                0x20003944        0x4 Middlewares\FreeRTOS\tasks.o
 .bss.xSchedulerRunning
                0x20003948        0x4 Middlewares\FreeRTOS\tasks.o
 .bss.uxPendedTicks
                0x2000394c        0x4 Middlewares\FreeRTOS\tasks.o
 .bss.xYieldPending
                0x20003950        0x4 Middlewares\FreeRTOS\tasks.o
 .bss.xNumOfOverflows
                0x20003954        0x4 Middlewares\FreeRTOS\tasks.o
 .bss.uxTaskNumber
                0x20003958        0x4 Middlewares\FreeRTOS\tasks.o
 .bss.uxSchedulerSuspended
                0x2000395c        0x4 Middlewares\FreeRTOS\tasks.o
 .bss.ucMaxSysCallPriority
                0x20003960        0x1 Middlewares\FreeRTOS\port.o
 *fill*         0x20003961        0x3 
 .bss.ulMaxPRIGROUPValue
                0x20003964        0x4 Middlewares\FreeRTOS\port.o
 .bss.ucHeap    0x20003968     0x3c00 Middlewares\FreeRTOS\heap_4.o
 .bss.xStart    0x20007568        0x8 Middlewares\FreeRTOS\heap_4.o
 .bss.pxEnd     0x20007570        0x4 Middlewares\FreeRTOS\heap_4.o
 .bss.xFreeBytesRemaining
                0x20007574        0x4 Middlewares\FreeRTOS\heap_4.o
 .bss.xMinimumEverFreeBytesRemaining
                0x20007578        0x4 Middlewares\FreeRTOS\heap_4.o
 .bss.xBlockAllocatedBit
                0x2000757c        0x4 Middlewares\FreeRTOS\heap_4.o
 .bss.uwTick    0x20007580        0x4 Drivers\STM32F4xx_HAL_Driver\stm32f4xx_hal.o
 .bss.s_xSemaphore
                0x20007584        0x4 Application\User\ethernetif.o
                0x20007584                s_xSemaphore
 .bss.__malloc_max_total_mem
                0x20007588        0x4 c:/program files (x86)/atollic/truestudio for arm pro 5.3.1/armtools/bin/../lib/gcc/arm-atollic-eabi/4.8.3/../../../../arm-atollic-eabi/lib/armv7e-m/fpu\libc.a(lib_a-mallocr.o)
                0x20007588                __malloc_max_total_mem
 .bss.__malloc_max_sbrked_mem
                0x2000758c        0x4 c:/program files (x86)/atollic/truestudio for arm pro 5.3.1/armtools/bin/../lib/gcc/arm-atollic-eabi/4.8.3/../../../../arm-atollic-eabi/lib/armv7e-m/fpu\libc.a(lib_a-mallocr.o)
                0x2000758c                __malloc_max_sbrked_mem
 .bss.__malloc_top_pad
                0x20007590        0x4 c:/program files (x86)/atollic/truestudio for arm pro 5.3.1/armtools/bin/../lib/gcc/arm-atollic-eabi/4.8.3/../../../../arm-atollic-eabi/lib/armv7e-m/fpu\libc.a(lib_a-mallocr.o)
                0x20007590                __malloc_top_pad
 .bss.__malloc_current_mallinfo
                0x20007594       0x28 c:/program files (x86)/atollic/truestudio for arm pro 5.3.1/armtools/bin/../lib/gcc/arm-atollic-eabi/4.8.3/../../../../arm-atollic-eabi/lib/armv7e-m/fpu\libc.a(lib_a-mallocr.o)
                0x20007594                __malloc_current_mallinfo
 .bss.heap_end.5122
                0x200075bc        0x4 c:/program files (x86)/atollic/truestudio for arm pro 5.3.1/armtools/bin/../lib/gcc/arm-atollic-eabi/4.8.3/../../../../arm-atollic-eabi/lib/armv7e-m/fpu\libc.a(lib_a-syscalls.o)
 *(COMMON)
 COMMON         0x200075c0        0x4 Middlewares\LwIP\udp.o
                0x200075c0                udp_pcbs
 COMMON         0x200075c4        0x4 Middlewares\LwIP\tcp_in.o
                0x200075c4                tcp_input_pcb
 COMMON         0x200075c8       0x1c Middlewares\LwIP\tcp.o
                0x200075c8                tcp_active_pcbs_changed
                0x200075cc                tcp_active_pcbs
                0x200075d0                tcp_ticks
                0x200075d4                tcp_listen_pcbs
                0x200075d8                tcp_tmp_pcb
                0x200075dc                tcp_bound_pcbs
                0x200075e0                tcp_tw_pcbs
 COMMON         0x200075e4        0x1 Middlewares\LwIP\pbuf.o
                0x200075e4                pbuf_free_ooseq_pending
 *fill*         0x200075e5        0x3 
 COMMON         0x200075e8        0x8 Middlewares\LwIP\netif.o
                0x200075e8                netif_list
                0x200075ec                netif_default
 COMMON         0x200075f0      0x654 Middlewares\LwIP\mem.o
                0x200075f0                ram_heap
 COMMON         0x20007c44       0x10 Middlewares\LwIP\ip.o
                0x20007c44                current_iphdr_src
                0x20007c48                current_netif
                0x20007c4c                current_iphdr_dest
                0x20007c50                current_header
 COMMON         0x20007c54       0x34 Middlewares\LwIP\dhcp.o
                0x20007c54                dhcp_rx_options_given
                0x20007c60                dhcp_rx_options_val
 COMMON         0x20007c88       0x40 Middlewares\FreeRTOS\queue.o
                0x20007c88                xQueueRegistry
 COMMON         0x20007cc8        0x4 Application\User\main.o
                0x20007cc8                defaultTaskHandle
 COMMON         0x20007ccc       0x40 Application\User\lwip.o
                0x20007ccc                gnetif
                0x20007d00                ipaddr
                0x20007d04                netmask
                0x20007d08                gw
 COMMON         0x20007d0c     0x30e8 Application\User\ethernetif.o
                0x20007d0c                DMATxDscrTab
                0x20007d8c                Rx_Buff
                0x2000955c                DMARxDscrTab
                0x200095dc                heth
                0x20009624                Tx_Buff
 COMMON         0x2000adf4        0x4 c:/program files (x86)/atollic/truestudio for arm pro 5.3.1/armtools/bin/../lib/gcc/arm-atollic-eabi/4.8.3/../../../../arm-atollic-eabi/lib/armv7e-m/fpu\libc.a(lib_a-reent.o)
                0x2000adf4                errno
                0x2000adf8                . = ALIGN (0x4)
                0x2000adf8                _ebss = .
                0x2000adf8                __bss_end__ = _ebss

._user_heap_stack
                0x2000adf8      0x400
                0x2000adf8                . = ALIGN (0x4)
                0x2000adf8                PROVIDE (end, .)
                0x2000adf8                PROVIDE (_end, .)
                0x2000adf8                . = (. + _Min_Heap_Size)
                0x2000b1f8                . = (. + _Min_Stack_Size)
 *fill*         0x2000adf8      0x400 
                0x2000b1f8                . = ALIGN (0x4)

/DISCARD/
 libc.a(*)
 libm.a(*)
 libgcc.a(*)

.ARM.attributes
                0x00000000       0x30
 *(.ARM.attributes)
 .ARM.attributes
                0x00000000       0x22 c:/program files (x86)/atollic/truestudio for arm pro 5.3.1/armtools/bin/../lib/gcc/arm-atollic-eabi/4.8.3/armv7e-m/fpu/crti.o
 .ARM.attributes
                0x00000022       0x34 c:/program files (x86)/atollic/truestudio for arm pro 5.3.1/armtools/bin/../lib/gcc/arm-atollic-eabi/4.8.3/armv7e-m/fpu/crtbegin.o
 .ARM.attributes
                0x00000056       0x39 Middlewares\LwIP\udp.o
 .ARM.attributes
                0x0000008f       0x39 Middlewares\LwIP\tcpip.o
 .ARM.attributes
                0x000000c8       0x39 Middlewares\LwIP\tcp_out.o
 .ARM.attributes
                0x00000101       0x39 Middlewares\LwIP\tcp_in.o
 .ARM.attributes
                0x0000013a       0x39 Middlewares\LwIP\tcp.o
 .ARM.attributes
                0x00000173       0x39 Middlewares\LwIP\sys_arch.o
 .ARM.attributes
                0x000001ac       0x39 Middlewares\LwIP\sockets.o
 .ARM.attributes
                0x000001e5       0x39 Middlewares\LwIP\raw.o
 .ARM.attributes
                0x0000021e       0x39 Middlewares\LwIP\pbuf.o
 .ARM.attributes
                0x00000257       0x39 Middlewares\LwIP\netif.o
 .ARM.attributes
                0x00000290       0x39 Middlewares\LwIP\netbuf.o
 .ARM.attributes
                0x000002c9       0x39 Middlewares\LwIP\memp.o
 .ARM.attributes
                0x00000302       0x39 Middlewares\LwIP\mem.o
 .ARM.attributes
                0x0000033b       0x39 Middlewares\LwIP\lwip_timers.o
 .ARM.attributes
                0x00000374       0x39 Middlewares\LwIP\ip_frag.o
 .ARM.attributes
                0x000003ad       0x39 Middlewares\LwIP\ip_addr.o
 .ARM.attributes
                0x000003e6       0x39 Middlewares\LwIP\ip.o
 .ARM.attributes
                0x0000041f       0x39 Middlewares\LwIP\init.o
 .ARM.attributes
                0x00000458       0x39 Middlewares\LwIP\inet_chksum.o
 .ARM.attributes
                0x00000491       0x39 Middlewares\LwIP\icmp.o
 .ARM.attributes
                0x000004ca       0x39 Middlewares\LwIP\etharp.o
 .ARM.attributes
                0x00000503       0x39 Middlewares\LwIP\dhcp.o
 .ARM.attributes
                0x0000053c       0x39 Middlewares\LwIP\def.o
 .ARM.attributes
                0x00000575       0x39 Middlewares\LwIP\api_msg.o
 .ARM.attributes
                0x000005ae       0x39 Middlewares\LwIP\api_lib.o
 .ARM.attributes
                0x000005e7       0x39 Middlewares\FreeRTOS\tasks.o
 .ARM.attributes
                0x00000620       0x39 Middlewares\FreeRTOS\queue.o
 .ARM.attributes
                0x00000659       0x39 Middlewares\FreeRTOS\port.o
 .ARM.attributes
                0x00000692       0x39 Middlewares\FreeRTOS\list.o
 .ARM.attributes
                0x000006cb       0x39 Middlewares\FreeRTOS\heap_4.o
 .ARM.attributes
                0x00000704       0x39 Middlewares\FreeRTOS\cmsis_os.o
 .ARM.attributes
                0x0000073d       0x39 Drivers\STM32F4xx_HAL_Driver\stm32f4xx_hal_rcc.o
 .ARM.attributes
                0x00000776       0x39 Drivers\STM32F4xx_HAL_Driver\stm32f4xx_hal_gpio.o
 .ARM.attributes
                0x000007af       0x39 Drivers\STM32F4xx_HAL_Driver\stm32f4xx_hal_eth.o
 .ARM.attributes
                0x000007e8       0x39 Drivers\STM32F4xx_HAL_Driver\stm32f4xx_hal_cortex.o
 .ARM.attributes
                0x00000821       0x39 Drivers\STM32F4xx_HAL_Driver\stm32f4xx_hal.o
 .ARM.attributes
                0x0000085a       0x39 Drivers\CMSIS\system_stm32f4xx.o
 .ARM.attributes
                0x00000893       0x39 Application\User\stm32f4xx_it.o
 .ARM.attributes
                0x000008cc       0x39 Application\User\stm32f4xx_hal_msp.o
 .ARM.attributes
                0x00000905       0x39 Application\User\main.o
 .ARM.attributes
                0x0000093e       0x39 Application\User\lwip.o
 .ARM.attributes
                0x00000977       0x39 Application\User\ethernetif.o
 .ARM.attributes
                0x000009b0       0x21 Application\TrueSTUDIO\startup_stm32f407xx.o
 .ARM.attributes
                0x000009d1       0x34 c:/program files (x86)/atollic/truestudio for arm pro 5.3.1/armtools/bin/../lib/gcc/arm-atollic-eabi/4.8.3/../../../../arm-atollic-eabi/lib/armv7e-m/fpu\libc.a(lib_a-init.o)
 .ARM.attributes
                0x00000a05       0x34 c:/program files (x86)/atollic/truestudio for arm pro 5.3.1/armtools/bin/../lib/gcc/arm-atollic-eabi/4.8.3/../../../../arm-atollic-eabi/lib/armv7e-m/fpu\libc.a(lib_a-malloc.o)
 .ARM.attributes
                0x00000a39       0x34 c:/program files (x86)/atollic/truestudio for arm pro 5.3.1/armtools/bin/../lib/gcc/arm-atollic-eabi/4.8.3/../../../../arm-atollic-eabi/lib/armv7e-m/fpu\libc.a(lib_a-mallocr.o)
 .ARM.attributes
                0x00000a6d       0x34 c:/program files (x86)/atollic/truestudio for arm pro 5.3.1/armtools/bin/../lib/gcc/arm-atollic-eabi/4.8.3/../../../../arm-atollic-eabi/lib/armv7e-m/fpu\libc.a(lib_a-memcmp.o)
 .ARM.attributes
                0x00000aa1       0x34 c:/program files (x86)/atollic/truestudio for arm pro 5.3.1/armtools/bin/../lib/gcc/arm-atollic-eabi/4.8.3/../../../../arm-atollic-eabi/lib/armv7e-m/fpu\libc.a(lib_a-memcpy-stub.o)
 .ARM.attributes
                0x00000ad5       0x34 c:/program files (x86)/atollic/truestudio for arm pro 5.3.1/armtools/bin/../lib/gcc/arm-atollic-eabi/4.8.3/../../../../arm-atollic-eabi/lib/armv7e-m/fpu\libc.a(lib_a-memset.o)
 .ARM.attributes
                0x00000b09       0x34 c:/program files (x86)/atollic/truestudio for arm pro 5.3.1/armtools/bin/../lib/gcc/arm-atollic-eabi/4.8.3/../../../../arm-atollic-eabi/lib/armv7e-m/fpu\libc.a(lib_a-mlock.o)
 .ARM.attributes
                0x00000b3d       0x34 c:/program files (x86)/atollic/truestudio for arm pro 5.3.1/armtools/bin/../lib/gcc/arm-atollic-eabi/4.8.3/../../../../arm-atollic-eabi/lib/armv7e-m/fpu\libc.a(lib_a-sbrkr.o)
 .ARM.attributes
                0x00000b71       0x34 c:/program files (x86)/atollic/truestudio for arm pro 5.3.1/armtools/bin/../lib/gcc/arm-atollic-eabi/4.8.3/../../../../arm-atollic-eabi/lib/armv7e-m/fpu\libc.a(lib_a-syscalls.o)
 .ARM.attributes
                0x00000ba5       0x34 c:/program files (x86)/atollic/truestudio for arm pro 5.3.1/armtools/bin/../lib/gcc/arm-atollic-eabi/4.8.3/../../../../arm-atollic-eabi/lib/armv7e-m/fpu\libc.a(lib_a-freer.o)
 .ARM.attributes
                0x00000bd9       0x34 c:/program files (x86)/atollic/truestudio for arm pro 5.3.1/armtools/bin/../lib/gcc/arm-atollic-eabi/4.8.3/../../../../arm-atollic-eabi/lib/armv7e-m/fpu\libc.a(lib_a-impure.o)
 .ARM.attributes
                0x00000c0d       0x34 c:/program files (x86)/atollic/truestudio for arm pro 5.3.1/armtools/bin/../lib/gcc/arm-atollic-eabi/4.8.3/../../../../arm-atollic-eabi/lib/armv7e-m/fpu\libc.a(lib_a-reent.o)
 .ARM.attributes
                0x00000c41       0x22 c:/program files (x86)/atollic/truestudio for arm pro 5.3.1/armtools/bin/../lib/gcc/arm-atollic-eabi/4.8.3/armv7e-m/fpu/crtn.o
OUTPUT(hopeful Configuration.elf elf32-littlearm)

.debug_info     0x00000000    0x1c735
 .debug_info    0x00000000      0xb83 Middlewares\LwIP\udp.o
 .debug_info    0x00000b83      0xb9d Middlewares\LwIP\tcpip.o
 .debug_info    0x00001720     0x1009 Middlewares\LwIP\tcp_out.o
 .debug_info    0x00002729      0xd72 Middlewares\LwIP\tcp_in.o
 .debug_info    0x0000349b     0x13ee Middlewares\LwIP\tcp.o
 .debug_info    0x00004889      0x69b Middlewares\LwIP\sys_arch.o
 .debug_info    0x00004f24     0x1ca9 Middlewares\LwIP\sockets.o
 .debug_info    0x00006bcd      0x747 Middlewares\LwIP\raw.o
 .debug_info    0x00007314      0xec4 Middlewares\LwIP\pbuf.o
 .debug_info    0x000081d8      0xe91 Middlewares\LwIP\netif.o
 .debug_info    0x00009069      0x40a Middlewares\LwIP\netbuf.o
 .debug_info    0x00009473      0x298 Middlewares\LwIP\memp.o
 .debug_info    0x0000970b      0x3a7 Middlewares\LwIP\mem.o
 .debug_info    0x00009ab2      0x93d Middlewares\LwIP\lwip_timers.o
 .debug_info    0x0000a3ef      0xa3e Middlewares\LwIP\ip_frag.o
 .debug_info    0x0000ae2d      0x580 Middlewares\LwIP\ip_addr.o
 .debug_info    0x0000b3ad      0x958 Middlewares\LwIP\ip.o
 .debug_info    0x0000bd05       0xb3 Middlewares\LwIP\init.o
 .debug_info    0x0000bdb8      0x3ca Middlewares\LwIP\inet_chksum.o
 .debug_info    0x0000c182      0x624 Middlewares\LwIP\icmp.o
 .debug_info    0x0000c7a6      0xe15 Middlewares\LwIP\etharp.o
 .debug_info    0x0000d5bb     0x108d Middlewares\LwIP\dhcp.o
 .debug_info    0x0000e648      0x14f Middlewares\LwIP\def.o
 .debug_info    0x0000e797     0x1300 Middlewares\LwIP\api_msg.o
 .debug_info    0x0000fa97     0x1158 Middlewares\LwIP\api_lib.o
 .debug_info    0x00010bef     0x1af9 Middlewares\FreeRTOS\tasks.o
 .debug_info    0x000126e8     0x1247 Middlewares\FreeRTOS\queue.o
 .debug_info    0x0001392f      0x52f Middlewares\FreeRTOS\port.o
 .debug_info    0x00013e5e      0x29d Middlewares\FreeRTOS\list.o
 .debug_info    0x000140fb      0x3cb Middlewares\FreeRTOS\heap_4.o
 .debug_info    0x000144c6     0x120e Middlewares\FreeRTOS\cmsis_os.o
 .debug_info    0x000156d4      0xb11 Drivers\STM32F4xx_HAL_Driver\stm32f4xx_hal_rcc.o
 .debug_info    0x000161e5      0x6f8 Drivers\STM32F4xx_HAL_Driver\stm32f4xx_hal_gpio.o
 .debug_info    0x000168dd     0x13bb Drivers\STM32F4xx_HAL_Driver\stm32f4xx_hal_eth.o
 .debug_info    0x00017c98      0xd04 Drivers\STM32F4xx_HAL_Driver\stm32f4xx_hal_cortex.o
 .debug_info    0x0001899c      0x843 Drivers\STM32F4xx_HAL_Driver\stm32f4xx_hal.o
 .debug_info    0x000191df      0x4a0 Drivers\CMSIS\system_stm32f4xx.o
 .debug_info    0x0001967f      0x78f Application\User\stm32f4xx_it.o
 .debug_info    0x00019e0e      0x2f8 Application\User\stm32f4xx_hal_msp.o
 .debug_info    0x0001a106      0xaac Application\User\main.o
 .debug_info    0x0001abb2      0x61f Application\User\lwip.o
 .debug_info    0x0001b1d1     0x149c Application\User\ethernetif.o
 .debug_info    0x0001c66d       0xc8 Application\TrueSTUDIO\startup_stm32f407xx.o

.debug_abbrev   0x00000000     0x4c95
 .debug_abbrev  0x00000000      0x237 Middlewares\LwIP\udp.o
 .debug_abbrev  0x00000237      0x218 Middlewares\LwIP\tcpip.o
 .debug_abbrev  0x0000044f      0x250 Middlewares\LwIP\tcp_out.o
 .debug_abbrev  0x0000069f      0x228 Middlewares\LwIP\tcp_in.o
 .debug_abbrev  0x000008c7      0x2e3 Middlewares\LwIP\tcp.o
 .debug_abbrev  0x00000baa      0x1e7 Middlewares\LwIP\sys_arch.o
 .debug_abbrev  0x00000d91      0x251 Middlewares\LwIP\sockets.o
 .debug_abbrev  0x00000fe2      0x1e0 Middlewares\LwIP\raw.o
 .debug_abbrev  0x000011c2      0x237 Middlewares\LwIP\pbuf.o
 .debug_abbrev  0x000013f9      0x24a Middlewares\LwIP\netif.o
 .debug_abbrev  0x00001643      0x140 Middlewares\LwIP\netbuf.o
 .debug_abbrev  0x00001783      0x136 Middlewares\LwIP\memp.o
 .debug_abbrev  0x000018b9      0x15e Middlewares\LwIP\mem.o
 .debug_abbrev  0x00001a17      0x1b7 Middlewares\LwIP\lwip_timers.o
 .debug_abbrev  0x00001bce      0x20f Middlewares\LwIP\ip_frag.o
 .debug_abbrev  0x00001ddd      0x1b9 Middlewares\LwIP\ip_addr.o
 .debug_abbrev  0x00001f96      0x1a0 Middlewares\LwIP\ip.o
 .debug_abbrev  0x00002136       0x67 Middlewares\LwIP\init.o
 .debug_abbrev  0x0000219d      0x12b Middlewares\LwIP\inet_chksum.o
 .debug_abbrev  0x000022c8      0x1c5 Middlewares\LwIP\icmp.o
 .debug_abbrev  0x0000248d      0x21e Middlewares\LwIP\etharp.o
 .debug_abbrev  0x000026ab      0x21a Middlewares\LwIP\dhcp.o
 .debug_abbrev  0x000028c5       0x96 Middlewares\LwIP\def.o
 .debug_abbrev  0x0000295b      0x256 Middlewares\LwIP\api_msg.o
 .debug_abbrev  0x00002bb1      0x20a Middlewares\LwIP\api_lib.o
 .debug_abbrev  0x00002dbb      0x27e Middlewares\FreeRTOS\tasks.o
 .debug_abbrev  0x00003039      0x208 Middlewares\FreeRTOS\queue.o
 .debug_abbrev  0x00003241      0x1ce Middlewares\FreeRTOS\port.o
 .debug_abbrev  0x0000340f       0xbe Middlewares\FreeRTOS\list.o
 .debug_abbrev  0x000034cd      0x1b9 Middlewares\FreeRTOS\heap_4.o
 .debug_abbrev  0x00003686      0x2d5 Middlewares\FreeRTOS\cmsis_os.o
 .debug_abbrev  0x0000395b      0x294 Drivers\STM32F4xx_HAL_Driver\stm32f4xx_hal_rcc.o
 .debug_abbrev  0x00003bef      0x1aa Drivers\STM32F4xx_HAL_Driver\stm32f4xx_hal_gpio.o
 .debug_abbrev  0x00003d99      0x21d Drivers\STM32F4xx_HAL_Driver\stm32f4xx_hal_eth.o
 .debug_abbrev  0x00003fb6      0x2be Drivers\STM32F4xx_HAL_Driver\stm32f4xx_hal_cortex.o
 .debug_abbrev  0x00004274      0x1ee Drivers\STM32F4xx_HAL_Driver\stm32f4xx_hal.o
 .debug_abbrev  0x00004462      0x101 Drivers\CMSIS\system_stm32f4xx.o
 .debug_abbrev  0x00004563      0x104 Application\User\stm32f4xx_it.o
 .debug_abbrev  0x00004667       0x7d Application\User\stm32f4xx_hal_msp.o
 .debug_abbrev  0x000046e4      0x202 Application\User\main.o
 .debug_abbrev  0x000048e6      0x102 Application\User\lwip.o
 .debug_abbrev  0x000049e8      0x29b Application\User\ethernetif.o
 .debug_abbrev  0x00004c83       0x12 Application\TrueSTUDIO\startup_stm32f407xx.o

.debug_aranges  0x00000000     0x1750
 .debug_aranges
                0x00000000       0x78 Middlewares\LwIP\udp.o
 .debug_aranges
                0x00000078       0x80 Middlewares\LwIP\tcpip.o
 .debug_aranges
                0x000000f8       0x98 Middlewares\LwIP\tcp_out.o
 .debug_aranges
                0x00000190       0x50 Middlewares\LwIP\tcp_in.o
 .debug_aranges
                0x000001e0      0x140 Middlewares\LwIP\tcp.o
 .debug_aranges
                0x00000320       0xd0 Middlewares\LwIP\sys_arch.o
 .debug_aranges
                0x000003f0      0x108 Middlewares\LwIP\sockets.o
 .debug_aranges
                0x000004f8       0x58 Middlewares\LwIP\raw.o
 .debug_aranges
                0x00000550       0xc0 Middlewares\LwIP\pbuf.o
 .debug_aranges
                0x00000610       0x80 Middlewares\LwIP\netif.o
 .debug_aranges
                0x00000690       0x60 Middlewares\LwIP\netbuf.o
 .debug_aranges
                0x000006f0       0x30 Middlewares\LwIP\memp.o
 .debug_aranges
                0x00000720       0x48 Middlewares\LwIP\mem.o
 .debug_aranges
                0x00000768       0x68 Middlewares\LwIP\lwip_timers.o
 .debug_aranges
                0x000007d0       0x70 Middlewares\LwIP\ip_frag.o
 .debug_aranges
                0x00000840       0x48 Middlewares\LwIP\ip_addr.o
 .debug_aranges
                0x00000888       0x38 Middlewares\LwIP\ip.o
 .debug_aranges
                0x000008c0       0x20 Middlewares\LwIP\init.o
 .debug_aranges
                0x000008e0       0x40 Middlewares\LwIP\inet_chksum.o
 .debug_aranges
                0x00000920       0x38 Middlewares\LwIP\icmp.o
 .debug_aranges
                0x00000958       0x88 Middlewares\LwIP\etharp.o
 .debug_aranges
                0x000009e0      0x128 Middlewares\LwIP\dhcp.o
 .debug_aranges
                0x00000b08       0x38 Middlewares\LwIP\def.o
 .debug_aranges
                0x00000b40       0xe8 Middlewares\LwIP\api_msg.o
 .debug_aranges
                0x00000c28       0xa8 Middlewares\LwIP\api_lib.o
 .debug_aranges
                0x00000cd0      0x1a8 Middlewares\FreeRTOS\tasks.o
 .debug_aranges
                0x00000e78       0xf8 Middlewares\FreeRTOS\queue.o
 .debug_aranges
                0x00000f70       0x80 Middlewares\FreeRTOS\port.o
 .debug_aranges
                0x00000ff0       0x40 Middlewares\FreeRTOS\list.o
 .debug_aranges
                0x00001030       0x50 Middlewares\FreeRTOS\heap_4.o
 .debug_aranges
                0x00001080      0x1b0 Middlewares\FreeRTOS\cmsis_os.o
 .debug_aranges
                0x00001230       0x88 Drivers\STM32F4xx_HAL_Driver\stm32f4xx_hal_rcc.o
 .debug_aranges
                0x000012b8       0x58 Drivers\STM32F4xx_HAL_Driver\stm32f4xx_hal_gpio.o
 .debug_aranges
                0x00001310      0x110 Drivers\STM32F4xx_HAL_Driver\stm32f4xx_hal_eth.o
 .debug_aranges
                0x00001420      0x108 Drivers\STM32F4xx_HAL_Driver\stm32f4xx_hal_cortex.o
 .debug_aranges
                0x00001528       0xc0 Drivers\STM32F4xx_HAL_Driver\stm32f4xx_hal.o
 .debug_aranges
                0x000015e8       0x28 Drivers\CMSIS\system_stm32f4xx.o
 .debug_aranges
                0x00001610       0x28 Application\User\stm32f4xx_it.o
 .debug_aranges
                0x00001638       0x20 Application\User\stm32f4xx_hal_msp.o
 .debug_aranges
                0x00001658       0x38 Application\User\main.o
 .debug_aranges
                0x00001690       0x28 Application\User\lwip.o
 .debug_aranges
                0x000016b8       0x70 Application\User\ethernetif.o
 .debug_aranges
                0x00001728       0x28 Application\TrueSTUDIO\startup_stm32f407xx.o

.debug_ranges   0x00000000     0x14a8
 .debug_ranges  0x00000000       0x68 Middlewares\LwIP\udp.o
 .debug_ranges  0x00000068       0x70 Middlewares\LwIP\tcpip.o
 .debug_ranges  0x000000d8       0x88 Middlewares\LwIP\tcp_out.o
 .debug_ranges  0x00000160       0x40 Middlewares\LwIP\tcp_in.o
 .debug_ranges  0x000001a0      0x130 Middlewares\LwIP\tcp.o
 .debug_ranges  0x000002d0       0xc0 Middlewares\LwIP\sys_arch.o
 .debug_ranges  0x00000390       0xf8 Middlewares\LwIP\sockets.o
 .debug_ranges  0x00000488       0x48 Middlewares\LwIP\raw.o
 .debug_ranges  0x000004d0       0xb0 Middlewares\LwIP\pbuf.o
 .debug_ranges  0x00000580       0x70 Middlewares\LwIP\netif.o
 .debug_ranges  0x000005f0       0x50 Middlewares\LwIP\netbuf.o
 .debug_ranges  0x00000640       0x20 Middlewares\LwIP\memp.o
 .debug_ranges  0x00000660       0x38 Middlewares\LwIP\mem.o
 .debug_ranges  0x00000698       0x58 Middlewares\LwIP\lwip_timers.o
 .debug_ranges  0x000006f0       0x60 Middlewares\LwIP\ip_frag.o
 .debug_ranges  0x00000750       0x38 Middlewares\LwIP\ip_addr.o
 .debug_ranges  0x00000788       0x28 Middlewares\LwIP\ip.o
 .debug_ranges  0x000007b0       0x10 Middlewares\LwIP\init.o
 .debug_ranges  0x000007c0       0x30 Middlewares\LwIP\inet_chksum.o
 .debug_ranges  0x000007f0       0x28 Middlewares\LwIP\icmp.o
 .debug_ranges  0x00000818       0x78 Middlewares\LwIP\etharp.o
 .debug_ranges  0x00000890      0x118 Middlewares\LwIP\dhcp.o
 .debug_ranges  0x000009a8       0x28 Middlewares\LwIP\def.o
 .debug_ranges  0x000009d0       0xd8 Middlewares\LwIP\api_msg.o
 .debug_ranges  0x00000aa8       0x98 Middlewares\LwIP\api_lib.o
 .debug_ranges  0x00000b40      0x198 Middlewares\FreeRTOS\tasks.o
 .debug_ranges  0x00000cd8       0xe8 Middlewares\FreeRTOS\queue.o
 .debug_ranges  0x00000dc0       0x70 Middlewares\FreeRTOS\port.o
 .debug_ranges  0x00000e30       0x30 Middlewares\FreeRTOS\list.o
 .debug_ranges  0x00000e60       0x40 Middlewares\FreeRTOS\heap_4.o
 .debug_ranges  0x00000ea0      0x1a0 Middlewares\FreeRTOS\cmsis_os.o
 .debug_ranges  0x00001040       0x78 Drivers\STM32F4xx_HAL_Driver\stm32f4xx_hal_rcc.o
 .debug_ranges  0x000010b8       0x48 Drivers\STM32F4xx_HAL_Driver\stm32f4xx_hal_gpio.o
 .debug_ranges  0x00001100      0x100 Drivers\STM32F4xx_HAL_Driver\stm32f4xx_hal_eth.o
 .debug_ranges  0x00001200       0xf8 Drivers\STM32F4xx_HAL_Driver\stm32f4xx_hal_cortex.o
 .debug_ranges  0x000012f8       0xb0 Drivers\STM32F4xx_HAL_Driver\stm32f4xx_hal.o
 .debug_ranges  0x000013a8       0x18 Drivers\CMSIS\system_stm32f4xx.o
 .debug_ranges  0x000013c0       0x18 Application\User\stm32f4xx_it.o
 .debug_ranges  0x000013d8       0x10 Application\User\stm32f4xx_hal_msp.o
 .debug_ranges  0x000013e8       0x28 Application\User\main.o
 .debug_ranges  0x00001410       0x18 Application\User\lwip.o
 .debug_ranges  0x00001428       0x60 Application\User\ethernetif.o
 .debug_ranges  0x00001488       0x20 Application\TrueSTUDIO\startup_stm32f407xx.o

.debug_line     0x00000000     0xd94c
 .debug_line    0x00000000      0x4e7 Middlewares\LwIP\udp.o
 .debug_line    0x000004e7      0x4f4 Middlewares\LwIP\tcpip.o
 .debug_line    0x000009db      0x68f Middlewares\LwIP\tcp_out.o
 .debug_line    0x0000106a      0x813 Middlewares\LwIP\tcp_in.o
 .debug_line    0x0000187d      0x86a Middlewares\LwIP\tcp.o
 .debug_line    0x000020e7      0x4ef Middlewares\LwIP\sys_arch.o
 .debug_line    0x000025d6      0xc07 Middlewares\LwIP\sockets.o
 .debug_line    0x000031dd      0x38e Middlewares\LwIP\raw.o
 .debug_line    0x0000356b      0x6d2 Middlewares\LwIP\pbuf.o
 .debug_line    0x00003c3d      0x439 Middlewares\LwIP\netif.o
 .debug_line    0x00004076      0x365 Middlewares\LwIP\netbuf.o
 .debug_line    0x000043db      0x262 Middlewares\LwIP\memp.o
 .debug_line    0x0000463d      0x3b1 Middlewares\LwIP\mem.o
 .debug_line    0x000049ee      0x42f Middlewares\LwIP\lwip_timers.o
 .debug_line    0x00004e1d      0x4bc Middlewares\LwIP\ip_frag.o
 .debug_line    0x000052d9      0x392 Middlewares\LwIP\ip_addr.o
 .debug_line    0x0000566b      0x37f Middlewares\LwIP\ip.o
 .debug_line    0x000059ea      0x184 Middlewares\LwIP\init.o
 .debug_line    0x00005b6e      0x30c Middlewares\LwIP\inet_chksum.o
 .debug_line    0x00005e7a      0x2ef Middlewares\LwIP\icmp.o
 .debug_line    0x00006169      0x59f Middlewares\LwIP\etharp.o
 .debug_line    0x00006708      0x94c Middlewares\LwIP\dhcp.o
 .debug_line    0x00007054      0x1ee Middlewares\LwIP\def.o
 .debug_line    0x00007242      0x910 Middlewares\LwIP\api_msg.o
 .debug_line    0x00007b52      0x6f2 Middlewares\LwIP\api_lib.o
 .debug_line    0x00008244      0xd67 Middlewares\FreeRTOS\tasks.o
 .debug_line    0x00008fab      0xa2a Middlewares\FreeRTOS\queue.o
 .debug_line    0x000099d5      0x3c2 Middlewares\FreeRTOS\port.o
 .debug_line    0x00009d97      0x25b Middlewares\FreeRTOS\list.o
 .debug_line    0x00009ff2      0x37c Middlewares\FreeRTOS\heap_4.o
 .debug_line    0x0000a36e      0x7f4 Middlewares\FreeRTOS\cmsis_os.o
 .debug_line    0x0000ab62      0x62a Drivers\STM32F4xx_HAL_Driver\stm32f4xx_hal_rcc.o
 .debug_line    0x0000b18c      0x40c Drivers\STM32F4xx_HAL_Driver\stm32f4xx_hal_gpio.o
 .debug_line    0x0000b598      0x8cc Drivers\STM32F4xx_HAL_Driver\stm32f4xx_hal_eth.o
 .debug_line    0x0000be64      0x4f6 Drivers\STM32F4xx_HAL_Driver\stm32f4xx_hal_cortex.o
 .debug_line    0x0000c35a      0x3c1 Drivers\STM32F4xx_HAL_Driver\stm32f4xx_hal.o
 .debug_line    0x0000c71b      0x203 Drivers\CMSIS\system_stm32f4xx.o
 .debug_line    0x0000c91e      0x20d Application\User\stm32f4xx_it.o
 .debug_line    0x0000cb2b      0x1a8 Application\User\stm32f4xx_hal_msp.o
 .debug_line    0x0000ccd3      0x42b Application\User\main.o
 .debug_line    0x0000d0fe      0x25c Application\User\lwip.o
 .debug_line    0x0000d35a      0x53e Application\User\ethernetif.o
 .debug_line    0x0000d898       0xb4 Application\TrueSTUDIO\startup_stm32f407xx.o

.debug_str      0x00000000     0x6e10
 .debug_str     0x00000000      0x63c Middlewares\LwIP\udp.o
                                0x75f (size before relaxing)
 .debug_str     0x0000063c      0x41f Middlewares\LwIP\tcpip.o
                                0x818 (size before relaxing)
 .debug_str     0x00000a5b      0x416 Middlewares\LwIP\tcp_out.o
                                0x8c2 (size before relaxing)
 .debug_str     0x00000e71      0x1b3 Middlewares\LwIP\tcp_in.o
                                0x890 (size before relaxing)
 .debug_str     0x00001024      0x37b Middlewares\LwIP\tcp.o
                                0xa87 (size before relaxing)
 .debug_str     0x0000139f      0x261 Middlewares\LwIP\sys_arch.o
                                0x4e2 (size before relaxing)
 .debug_str     0x00001600      0x496 Middlewares\LwIP\sockets.o
                                0xc48 (size before relaxing)
 .debug_str     0x00001a96       0x93 Middlewares\LwIP\raw.o
                                0x533 (size before relaxing)
 .debug_str     0x00001b29      0x27d Middlewares\LwIP\pbuf.o
                                0x8eb (size before relaxing)
 .debug_str     0x00001da6      0x126 Middlewares\LwIP\netif.o
                                0x844 (size before relaxing)
 .debug_str     0x00001ecc       0xb0 Middlewares\LwIP\netbuf.o
                                0x403 (size before relaxing)
 .debug_str     0x00001f7c       0x8b Middlewares\LwIP\memp.o
                                0x343 (size before relaxing)
 .debug_str     0x00002007       0xbe Middlewares\LwIP\mem.o
                                0x2e6 (size before relaxing)
 .debug_str     0x000020c5      0x129 Middlewares\LwIP\lwip_timers.o
                                0x751 (size before relaxing)
 .debug_str     0x000021ee      0x2a7 Middlewares\LwIP\ip_frag.o
                                0x722 (size before relaxing)
 .debug_str     0x00002495       0xd2 Middlewares\LwIP\ip_addr.o
                                0x378 (size before relaxing)
 .debug_str     0x00002567       0xb0 Middlewares\LwIP\ip.o
                                0x5e6 (size before relaxing)
 .debug_str     0x00002617       0x40 Middlewares\LwIP\init.o
                                0x1f9 (size before relaxing)
 .debug_str     0x00002657       0xc6 Middlewares\LwIP\inet_chksum.o
                                0x2e9 (size before relaxing)
 .debug_str     0x0000271d       0xa1 Middlewares\LwIP\icmp.o
                                0x4b7 (size before relaxing)
 .debug_str     0x000027be      0x32c Middlewares\LwIP\etharp.o
                                0x7d8 (size before relaxing)
 .debug_str     0x00002aea      0x32c Middlewares\LwIP\dhcp.o
                                0x822 (size before relaxing)
 .debug_str     0x00002e16       0x61 Middlewares\LwIP\def.o
                                0x226 (size before relaxing)
 .debug_str     0x00002e77      0x1cf Middlewares\LwIP\api_msg.o
                                0xa53 (size before relaxing)
 .debug_str     0x00003046      0x1a0 Middlewares\LwIP\api_lib.o
                                0x9cb (size before relaxing)
 .debug_str     0x000031e6      0xc73 Middlewares\FreeRTOS\tasks.o
                                0xebb (size before relaxing)
 .debug_str     0x00003e59      0x47f Middlewares\FreeRTOS\queue.o
                                0x82e (size before relaxing)
 .debug_str     0x000042d8      0x222 Middlewares\FreeRTOS\port.o
                                0x49c (size before relaxing)
 .debug_str     0x000044fa       0xc5 Middlewares\FreeRTOS\list.o
                                0x325 (size before relaxing)
 .debug_str     0x000045bf      0x1fe Middlewares\FreeRTOS\heap_4.o
                                0x3ef (size before relaxing)
 .debug_str     0x000047bd      0x723 Middlewares\FreeRTOS\cmsis_os.o
                                0xadf (size before relaxing)
 .debug_str     0x00004ee0      0x4ad Drivers\STM32F4xx_HAL_Driver\stm32f4xx_hal_rcc.o
                                0x6db (size before relaxing)
 .debug_str     0x0000538d      0x17a Drivers\STM32F4xx_HAL_Driver\stm32f4xx_hal_gpio.o
                                0x527 (size before relaxing)
 .debug_str     0x00005507      0xb31 Drivers\STM32F4xx_HAL_Driver\stm32f4xx_hal_eth.o
                                0xef4 (size before relaxing)
 .debug_str     0x00006038      0x8d3 Drivers\STM32F4xx_HAL_Driver\stm32f4xx_hal_cortex.o
                                0xc1f (size before relaxing)
 .debug_str     0x0000690b      0x20a Drivers\STM32F4xx_HAL_Driver\stm32f4xx_hal.o
                                0xa76 (size before relaxing)
 .debug_str     0x00006b15       0x7a Drivers\CMSIS\system_stm32f4xx.o
                                0x3d8 (size before relaxing)
 .debug_str     0x00006b8f       0x2c Application\User\stm32f4xx_it.o
                                0x701 (size before relaxing)
 .debug_str     0x00006bbb       0x21 Application\User\stm32f4xx_hal_msp.o
                                0x6ed (size before relaxing)
 .debug_str     0x00006bdc       0x84 Application\User\main.o
                                0xb9b (size before relaxing)
 .debug_str     0x00006c60       0x38 Application\User\lwip.o
                                0x46e (size before relaxing)
 .debug_str     0x00006c98      0x178 Application\User\ethernetif.o
                               0x121b (size before relaxing)

.comment        0x00000000       0x82
 .comment       0x00000000       0x82 Middlewares\LwIP\udp.o
                                 0x83 (size before relaxing)
 .comment       0x00000000       0x83 Middlewares\LwIP\tcpip.o
 .comment       0x00000000       0x83 Middlewares\LwIP\tcp_out.o
 .comment       0x00000000       0x83 Middlewares\LwIP\tcp_in.o
 .comment       0x00000000       0x83 Middlewares\LwIP\tcp.o
 .comment       0x00000000       0x83 Middlewares\LwIP\sys_arch.o
 .comment       0x00000000       0x83 Middlewares\LwIP\sockets.o
 .comment       0x00000000       0x83 Middlewares\LwIP\raw.o
 .comment       0x00000000       0x83 Middlewares\LwIP\pbuf.o
 .comment       0x00000000       0x83 Middlewares\LwIP\netif.o
 .comment       0x00000000       0x83 Middlewares\LwIP\netbuf.o
 .comment       0x00000000       0x83 Middlewares\LwIP\memp.o
 .comment       0x00000000       0x83 Middlewares\LwIP\mem.o
 .comment       0x00000000       0x83 Middlewares\LwIP\lwip_timers.o
 .comment       0x00000000       0x83 Middlewares\LwIP\ip_frag.o
 .comment       0x00000000       0x83 Middlewares\LwIP\ip_addr.o
 .comment       0x00000000       0x83 Middlewares\LwIP\ip.o
 .comment       0x00000000       0x83 Middlewares\LwIP\init.o
 .comment       0x00000000       0x83 Middlewares\LwIP\inet_chksum.o
 .comment       0x00000000       0x83 Middlewares\LwIP\icmp.o
 .comment       0x00000000       0x83 Middlewares\LwIP\etharp.o
 .comment       0x00000000       0x83 Middlewares\LwIP\dhcp.o
 .comment       0x00000000       0x83 Middlewares\LwIP\def.o
 .comment       0x00000000       0x83 Middlewares\LwIP\api_msg.o
 .comment       0x00000000       0x83 Middlewares\LwIP\api_lib.o
 .comment       0x00000000       0x83 Middlewares\FreeRTOS\tasks.o
 .comment       0x00000000       0x83 Middlewares\FreeRTOS\queue.o
 .comment       0x00000000       0x83 Middlewares\FreeRTOS\port.o
 .comment       0x00000000       0x83 Middlewares\FreeRTOS\list.o
 .comment       0x00000000       0x83 Middlewares\FreeRTOS\heap_4.o
 .comment       0x00000000       0x83 Middlewares\FreeRTOS\cmsis_os.o
 .comment       0x00000000       0x83 Drivers\STM32F4xx_HAL_Driver\stm32f4xx_hal_rcc.o
 .comment       0x00000000       0x83 Drivers\STM32F4xx_HAL_Driver\stm32f4xx_hal_gpio.o
 .comment       0x00000000       0x83 Drivers\STM32F4xx_HAL_Driver\stm32f4xx_hal_eth.o
 .comment       0x00000000       0x83 Drivers\STM32F4xx_HAL_Driver\stm32f4xx_hal_cortex.o
 .comment       0x00000000       0x83 Drivers\STM32F4xx_HAL_Driver\stm32f4xx_hal.o
 .comment       0x00000000       0x83 Drivers\CMSIS\system_stm32f4xx.o
 .comment       0x00000000       0x83 Application\User\stm32f4xx_it.o
 .comment       0x00000000       0x83 Application\User\stm32f4xx_hal_msp.o
 .comment       0x00000000       0x83 Application\User\main.o
 .comment       0x00000000       0x83 Application\User\lwip.o
 .comment       0x00000000       0x83 Application\User\ethernetif.o

.debug_frame    0x00000000     0x4eec
 .debug_frame   0x00000000      0x17c Middlewares\LwIP\udp.o
 .debug_frame   0x0000017c      0x1b0 Middlewares\LwIP\tcpip.o
 .debug_frame   0x0000032c      0x218 Middlewares\LwIP\tcp_out.o
 .debug_frame   0x00000544       0xf8 Middlewares\LwIP\tcp_in.o
 .debug_frame   0x0000063c      0x474 Middlewares\LwIP\tcp.o
 .debug_frame   0x00000ab0      0x2d4 Middlewares\LwIP\sys_arch.o
 .debug_frame   0x00000d84      0x3bc Middlewares\LwIP\sockets.o
 .debug_frame   0x00001140      0x104 Middlewares\LwIP\raw.o
 .debug_frame   0x00001244      0x298 Middlewares\LwIP\pbuf.o
 .debug_frame   0x000014dc      0x194 Middlewares\LwIP\netif.o
 .debug_frame   0x00001670      0x124 Middlewares\LwIP\netbuf.o
 .debug_frame   0x00001794       0x64 Middlewares\LwIP\memp.o
 .debug_frame   0x000017f8       0xcc Middlewares\LwIP\mem.o
 .debug_frame   0x000018c4      0x148 Middlewares\LwIP\lwip_timers.o
 .debug_frame   0x00001a0c      0x16c Middlewares\LwIP\ip_frag.o
 .debug_frame   0x00001b78       0xc8 Middlewares\LwIP\ip_addr.o
 .debug_frame   0x00001c40       0x8c Middlewares\LwIP\ip.o
 .debug_frame   0x00001ccc       0x2c Middlewares\LwIP\init.o
 .debug_frame   0x00001cf8       0xac Middlewares\LwIP\inet_chksum.o
 .debug_frame   0x00001da4       0x90 Middlewares\LwIP\icmp.o
 .debug_frame   0x00001e34      0x1d0 Middlewares\LwIP\etharp.o
 .debug_frame   0x00002004      0x438 Middlewares\LwIP\dhcp.o
 .debug_frame   0x0000243c       0x88 Middlewares\LwIP\def.o
 .debug_frame   0x000024c4      0x350 Middlewares\LwIP\api_msg.o
 .debug_frame   0x00002814      0x250 Middlewares\LwIP\api_lib.o
 .debug_frame   0x00002a64      0x604 Middlewares\FreeRTOS\tasks.o
 .debug_frame   0x00003068      0x370 Middlewares\FreeRTOS\queue.o
 .debug_frame   0x000033d8      0x150 Middlewares\FreeRTOS\port.o
 .debug_frame   0x00003528       0x9c Middlewares\FreeRTOS\list.o
 .debug_frame   0x000035c4       0xd0 Middlewares\FreeRTOS\heap_4.o
 .debug_frame   0x00003694      0x628 Middlewares\FreeRTOS\cmsis_os.o
 .debug_frame   0x00003cbc      0x1a0 Drivers\STM32F4xx_HAL_Driver\stm32f4xx_hal_rcc.o
 .debug_frame   0x00003e5c       0xf4 Drivers\STM32F4xx_HAL_Driver\stm32f4xx_hal_gpio.o
 .debug_frame   0x00003f50      0x3b0 Drivers\STM32F4xx_HAL_Driver\stm32f4xx_hal_eth.o
 .debug_frame   0x00004300      0x378 Drivers\STM32F4xx_HAL_Driver\stm32f4xx_hal_cortex.o
 .debug_frame   0x00004678      0x228 Drivers\STM32F4xx_HAL_Driver\stm32f4xx_hal.o
 .debug_frame   0x000048a0       0x44 Drivers\CMSIS\system_stm32f4xx.o
 .debug_frame   0x000048e4       0x48 Application\User\stm32f4xx_it.o
 .debug_frame   0x0000492c       0x2c Application\User\stm32f4xx_hal_msp.o
 .debug_frame   0x00004958       0x94 Application\User\main.o
 .debug_frame   0x000049ec       0x4c Application\User\lwip.o
 .debug_frame   0x00004a38      0x16c Application\User\ethernetif.o
 .debug_frame   0x00004ba4       0x2c c:/program files (x86)/atollic/truestudio for arm pro 5.3.1/armtools/bin/../lib/gcc/arm-atollic-eabi/4.8.3/../../../../arm-atollic-eabi/lib/armv7e-m/fpu\libc.a(lib_a-init.o)
 .debug_frame   0x00004bd0       0x30 c:/program files (x86)/atollic/truestudio for arm pro 5.3.1/armtools/bin/../lib/gcc/arm-atollic-eabi/4.8.3/../../../../arm-atollic-eabi/lib/armv7e-m/fpu\libc.a(lib_a-malloc.o)
 .debug_frame   0x00004c00       0x38 c:/program files (x86)/atollic/truestudio for arm pro 5.3.1/armtools/bin/../lib/gcc/arm-atollic-eabi/4.8.3/../../../../arm-atollic-eabi/lib/armv7e-m/fpu\libc.a(lib_a-mallocr.o)
 .debug_frame   0x00004c38       0x2c c:/program files (x86)/atollic/truestudio for arm pro 5.3.1/armtools/bin/../lib/gcc/arm-atollic-eabi/4.8.3/../../../../arm-atollic-eabi/lib/armv7e-m/fpu\libc.a(lib_a-memcmp.o)
 .debug_frame   0x00004c64       0x28 c:/program files (x86)/atollic/truestudio for arm pro 5.3.1/armtools/bin/../lib/gcc/arm-atollic-eabi/4.8.3/../../../../arm-atollic-eabi/lib/armv7e-m/fpu\libc.a(lib_a-memcpy-stub.o)
 .debug_frame   0x00004c8c       0x20 c:/program files (x86)/atollic/truestudio for arm pro 5.3.1/armtools/bin/../lib/gcc/arm-atollic-eabi/4.8.3/../../../../arm-atollic-eabi/lib/armv7e-m/fpu\libc.a(lib_a-memset.o)
 .debug_frame   0x00004cac       0x30 c:/program files (x86)/atollic/truestudio for arm pro 5.3.1/armtools/bin/../lib/gcc/arm-atollic-eabi/4.8.3/../../../../arm-atollic-eabi/lib/armv7e-m/fpu\libc.a(lib_a-mlock.o)
 .debug_frame   0x00004cdc       0x2c c:/program files (x86)/atollic/truestudio for arm pro 5.3.1/armtools/bin/../lib/gcc/arm-atollic-eabi/4.8.3/../../../../arm-atollic-eabi/lib/armv7e-m/fpu\libc.a(lib_a-sbrkr.o)
 .debug_frame   0x00004d08      0x14c c:/program files (x86)/atollic/truestudio for arm pro 5.3.1/armtools/bin/../lib/gcc/arm-atollic-eabi/4.8.3/../../../../arm-atollic-eabi/lib/armv7e-m/fpu\libc.a(lib_a-syscalls.o)
 .debug_frame   0x00004e54       0x50 c:/program files (x86)/atollic/truestudio for arm pro 5.3.1/armtools/bin/../lib/gcc/arm-atollic-eabi/4.8.3/../../../../arm-atollic-eabi/lib/armv7e-m/fpu\libc.a(lib_a-freer.o)
 .debug_frame   0x00004ea4       0x48 c:/program files (x86)/atollic/truestudio for arm pro 5.3.1/armtools/bin/../lib/gcc/arm-atollic-eabi/4.8.3/../../../../arm-atollic-eabi/lib/armv7e-m/fpu\libc.a(lib_a-reent.o)

Cross Reference Table

Symbol                                            File
ADC_IRQHandler                                    Application\TrueSTUDIO\startup_stm32f407xx.o
AHBPrescTable                                     Drivers\CMSIS\system_stm32f4xx.o
APBAHBPrescTable                                  Drivers\STM32F4xx_HAL_Driver\stm32f4xx_hal_rcc.o
BusFault_Handler                                  Application\TrueSTUDIO\startup_stm32f407xx.o
CAN1_RX0_IRQHandler                               Application\TrueSTUDIO\startup_stm32f407xx.o
CAN1_RX1_IRQHandler                               Application\TrueSTUDIO\startup_stm32f407xx.o
CAN1_SCE_IRQHandler                               Application\TrueSTUDIO\startup_stm32f407xx.o
CAN1_TX_IRQHandler                                Application\TrueSTUDIO\startup_stm32f407xx.o
CAN2_RX0_IRQHandler                               Application\TrueSTUDIO\startup_stm32f407xx.o
CAN2_RX1_IRQHandler                               Application\TrueSTUDIO\startup_stm32f407xx.o
CAN2_SCE_IRQHandler                               Application\TrueSTUDIO\startup_stm32f407xx.o
CAN2_TX_IRQHandler                                Application\TrueSTUDIO\startup_stm32f407xx.o
DCMI_IRQHandler                                   Application\TrueSTUDIO\startup_stm32f407xx.o
DMA1_Stream0_IRQHandler                           Application\TrueSTUDIO\startup_stm32f407xx.o
DMA1_Stream1_IRQHandler                           Application\TrueSTUDIO\startup_stm32f407xx.o
DMA1_Stream2_IRQHandler                           Application\TrueSTUDIO\startup_stm32f407xx.o
DMA1_Stream3_IRQHandler                           Application\TrueSTUDIO\startup_stm32f407xx.o
DMA1_Stream4_IRQHandler                           Application\TrueSTUDIO\startup_stm32f407xx.o
DMA1_Stream5_IRQHandler                           Application\TrueSTUDIO\startup_stm32f407xx.o
DMA1_Stream6_IRQHandler                           Application\TrueSTUDIO\startup_stm32f407xx.o
DMA1_Stream7_IRQHandler                           Application\TrueSTUDIO\startup_stm32f407xx.o
DMA2_Stream0_IRQHandler                           Application\TrueSTUDIO\startup_stm32f407xx.o
DMA2_Stream1_IRQHandler                           Application\TrueSTUDIO\startup_stm32f407xx.o
DMA2_Stream2_IRQHandler                           Application\TrueSTUDIO\startup_stm32f407xx.o
DMA2_Stream3_IRQHandler                           Application\TrueSTUDIO\startup_stm32f407xx.o
DMA2_Stream4_IRQHandler                           Application\TrueSTUDIO\startup_stm32f407xx.o
DMA2_Stream5_IRQHandler                           Application\TrueSTUDIO\startup_stm32f407xx.o
DMA2_Stream6_IRQHandler                           Application\TrueSTUDIO\startup_stm32f407xx.o
DMA2_Stream7_IRQHandler                           Application\TrueSTUDIO\startup_stm32f407xx.o
DMARxDscrTab                                      Application\User\ethernetif.o
DMATxDscrTab                                      Application\User\ethernetif.o
DebugMon_Handler                                  Application\TrueSTUDIO\startup_stm32f407xx.o
Default_Handler                                   Application\TrueSTUDIO\startup_stm32f407xx.o
ETH_IRQHandler                                    Application\User\stm32f4xx_it.o
ETH_WKUP_IRQHandler                               Application\TrueSTUDIO\startup_stm32f407xx.o
EXTI0_IRQHandler                                  Application\TrueSTUDIO\startup_stm32f407xx.o
EXTI15_10_IRQHandler                              Application\TrueSTUDIO\startup_stm32f407xx.o
EXTI1_IRQHandler                                  Application\TrueSTUDIO\startup_stm32f407xx.o
EXTI2_IRQHandler                                  Application\TrueSTUDIO\startup_stm32f407xx.o
EXTI3_IRQHandler                                  Application\TrueSTUDIO\startup_stm32f407xx.o
EXTI4_IRQHandler                                  Application\TrueSTUDIO\startup_stm32f407xx.o
EXTI9_5_IRQHandler                                Application\TrueSTUDIO\startup_stm32f407xx.o
FLASH_Erase_Sector                                Drivers\STM32F4xx_HAL_Driver\stm32f4xx_hal_flash_ex.o
                                                  Drivers\STM32F4xx_HAL_Driver\stm32f4xx_hal_flash.o
FLASH_FlushCaches                                 Drivers\STM32F4xx_HAL_Driver\stm32f4xx_hal_flash_ex.o
                                                  Drivers\STM32F4xx_HAL_Driver\stm32f4xx_hal_flash.o
FLASH_IRQHandler                                  Application\TrueSTUDIO\startup_stm32f407xx.o
FLASH_WaitForLastOperation                        Drivers\STM32F4xx_HAL_Driver\stm32f4xx_hal_flash.o
                                                  Drivers\STM32F4xx_HAL_Driver\stm32f4xx_hal_flash_ex.o
FPU_IRQHandler                                    Application\TrueSTUDIO\startup_stm32f407xx.o
FSMC_IRQHandler                                   Application\TrueSTUDIO\startup_stm32f407xx.o
HAL_DBGMCU_DisableDBGSleepMode                    Drivers\STM32F4xx_HAL_Driver\stm32f4xx_hal.o
HAL_DBGMCU_DisableDBGStandbyMode                  Drivers\STM32F4xx_HAL_Driver\stm32f4xx_hal.o
HAL_DBGMCU_DisableDBGStopMode                     Drivers\STM32F4xx_HAL_Driver\stm32f4xx_hal.o
HAL_DBGMCU_EnableDBGSleepMode                     Drivers\STM32F4xx_HAL_Driver\stm32f4xx_hal.o
HAL_DBGMCU_EnableDBGStandbyMode                   Drivers\STM32F4xx_HAL_Driver\stm32f4xx_hal.o
HAL_DBGMCU_EnableDBGStopMode                      Drivers\STM32F4xx_HAL_Driver\stm32f4xx_hal.o
HAL_DMAEx_ChangeMemory                            Drivers\STM32F4xx_HAL_Driver\stm32f4xx_hal_dma_ex.o
HAL_DMAEx_MultiBufferStart                        Drivers\STM32F4xx_HAL_Driver\stm32f4xx_hal_dma_ex.o
HAL_DMAEx_MultiBufferStart_IT                     Drivers\STM32F4xx_HAL_Driver\stm32f4xx_hal_dma_ex.o
HAL_DMA_Abort                                     Drivers\STM32F4xx_HAL_Driver\stm32f4xx_hal_dma.o
HAL_DMA_DeInit                                    Drivers\STM32F4xx_HAL_Driver\stm32f4xx_hal_dma.o
HAL_DMA_GetError                                  Drivers\STM32F4xx_HAL_Driver\stm32f4xx_hal_dma.o
HAL_DMA_GetState                                  Drivers\STM32F4xx_HAL_Driver\stm32f4xx_hal_dma.o
HAL_DMA_IRQHandler                                Drivers\STM32F4xx_HAL_Driver\stm32f4xx_hal_dma.o
HAL_DMA_Init                                      Drivers\STM32F4xx_HAL_Driver\stm32f4xx_hal_dma.o
HAL_DMA_PollForTransfer                           Drivers\STM32F4xx_HAL_Driver\stm32f4xx_hal_dma.o
HAL_DMA_Start                                     Drivers\STM32F4xx_HAL_Driver\stm32f4xx_hal_dma.o
HAL_DMA_Start_IT                                  Drivers\STM32F4xx_HAL_Driver\stm32f4xx_hal_dma.o
HAL_DeInit                                        Drivers\STM32F4xx_HAL_Driver\stm32f4xx_hal.o
HAL_Delay                                         Drivers\STM32F4xx_HAL_Driver\stm32f4xx_hal.o
                                                  Drivers\STM32F4xx_HAL_Driver\stm32f4xx_hal_eth.o
HAL_DisableCompensationCell                       Drivers\STM32F4xx_HAL_Driver\stm32f4xx_hal.o
HAL_ETH_ConfigDMA                                 Drivers\STM32F4xx_HAL_Driver\stm32f4xx_hal_eth.o
HAL_ETH_ConfigMAC                                 Drivers\STM32F4xx_HAL_Driver\stm32f4xx_hal_eth.o
HAL_ETH_DMARxDescListInit                         Drivers\STM32F4xx_HAL_Driver\stm32f4xx_hal_eth.o
                                                  Application\User\ethernetif.o
HAL_ETH_DMATxDescListInit                         Drivers\STM32F4xx_HAL_Driver\stm32f4xx_hal_eth.o
                                                  Application\User\ethernetif.o
HAL_ETH_DeInit                                    Drivers\STM32F4xx_HAL_Driver\stm32f4xx_hal_eth.o
HAL_ETH_ErrorCallback                             Drivers\STM32F4xx_HAL_Driver\stm32f4xx_hal_eth.o
HAL_ETH_GetReceivedFrame                          Drivers\STM32F4xx_HAL_Driver\stm32f4xx_hal_eth.o
HAL_ETH_GetReceivedFrame_IT                       Drivers\STM32F4xx_HAL_Driver\stm32f4xx_hal_eth.o
                                                  Application\User\ethernetif.o
HAL_ETH_GetState                                  Drivers\STM32F4xx_HAL_Driver\stm32f4xx_hal_eth.o
HAL_ETH_IRQHandler                                Drivers\STM32F4xx_HAL_Driver\stm32f4xx_hal_eth.o
                                                  Application\User\stm32f4xx_it.o
HAL_ETH_Init                                      Drivers\STM32F4xx_HAL_Driver\stm32f4xx_hal_eth.o
                                                  Application\User\ethernetif.o
HAL_ETH_MspDeInit                                 Application\User\ethernetif.o
                                                  Drivers\STM32F4xx_HAL_Driver\stm32f4xx_hal_eth.o
HAL_ETH_MspInit                                   Application\User\ethernetif.o
                                                  Drivers\STM32F4xx_HAL_Driver\stm32f4xx_hal_eth.o
HAL_ETH_ReadPHYRegister                           Drivers\STM32F4xx_HAL_Driver\stm32f4xx_hal_eth.o
                                                  Application\User\ethernetif.o
HAL_ETH_RxCpltCallback                            Application\User\ethernetif.o
                                                  Drivers\STM32F4xx_HAL_Driver\stm32f4xx_hal_eth.o
HAL_ETH_Start                                     Drivers\STM32F4xx_HAL_Driver\stm32f4xx_hal_eth.o
                                                  Application\User\ethernetif.o
HAL_ETH_Stop                                      Drivers\STM32F4xx_HAL_Driver\stm32f4xx_hal_eth.o
HAL_ETH_TransmitFrame                             Drivers\STM32F4xx_HAL_Driver\stm32f4xx_hal_eth.o
                                                  Application\User\ethernetif.o
HAL_ETH_TxCpltCallback                            Drivers\STM32F4xx_HAL_Driver\stm32f4xx_hal_eth.o
HAL_ETH_WritePHYRegister                          Drivers\STM32F4xx_HAL_Driver\stm32f4xx_hal_eth.o
                                                  Application\User\ethernetif.o
HAL_EnableCompensationCell                        Drivers\STM32F4xx_HAL_Driver\stm32f4xx_hal.o
HAL_FLASHEx_Erase                                 Drivers\STM32F4xx_HAL_Driver\stm32f4xx_hal_flash_ex.o
HAL_FLASHEx_Erase_IT                              Drivers\STM32F4xx_HAL_Driver\stm32f4xx_hal_flash_ex.o
HAL_FLASHEx_OBGetConfig                           Drivers\STM32F4xx_HAL_Driver\stm32f4xx_hal_flash_ex.o
HAL_FLASHEx_OBProgram                             Drivers\STM32F4xx_HAL_Driver\stm32f4xx_hal_flash_ex.o
HAL_FLASH_EndOfOperationCallback                  Drivers\STM32F4xx_HAL_Driver\stm32f4xx_hal_flash.o
HAL_FLASH_GetError                                Drivers\STM32F4xx_HAL_Driver\stm32f4xx_hal_flash.o
HAL_FLASH_IRQHandler                              Drivers\STM32F4xx_HAL_Driver\stm32f4xx_hal_flash.o
HAL_FLASH_Lock                                    Drivers\STM32F4xx_HAL_Driver\stm32f4xx_hal_flash.o
HAL_FLASH_OB_Launch                               Drivers\STM32F4xx_HAL_Driver\stm32f4xx_hal_flash.o
HAL_FLASH_OB_Lock                                 Drivers\STM32F4xx_HAL_Driver\stm32f4xx_hal_flash.o
HAL_FLASH_OB_Unlock                               Drivers\STM32F4xx_HAL_Driver\stm32f4xx_hal_flash.o
HAL_FLASH_OperationErrorCallback                  Drivers\STM32F4xx_HAL_Driver\stm32f4xx_hal_flash.o
HAL_FLASH_Program                                 Drivers\STM32F4xx_HAL_Driver\stm32f4xx_hal_flash.o
HAL_FLASH_Program_IT                              Drivers\STM32F4xx_HAL_Driver\stm32f4xx_hal_flash.o
HAL_FLASH_Unlock                                  Drivers\STM32F4xx_HAL_Driver\stm32f4xx_hal_flash.o
HAL_GPIO_DeInit                                   Drivers\STM32F4xx_HAL_Driver\stm32f4xx_hal_gpio.o
                                                  Application\User\ethernetif.o
HAL_GPIO_EXTI_Callback                            Drivers\STM32F4xx_HAL_Driver\stm32f4xx_hal_gpio.o
HAL_GPIO_EXTI_IRQHandler                          Drivers\STM32F4xx_HAL_Driver\stm32f4xx_hal_gpio.o
HAL_GPIO_Init                                     Drivers\STM32F4xx_HAL_Driver\stm32f4xx_hal_gpio.o
                                                  Application\User\ethernetif.o
                                                  Application\User\main.o
                                                  Drivers\STM32F4xx_HAL_Driver\stm32f4xx_hal_rcc.o
HAL_GPIO_LockPin                                  Drivers\STM32F4xx_HAL_Driver\stm32f4xx_hal_gpio.o
HAL_GPIO_ReadPin                                  Drivers\STM32F4xx_HAL_Driver\stm32f4xx_hal_gpio.o
HAL_GPIO_TogglePin                                Drivers\STM32F4xx_HAL_Driver\stm32f4xx_hal_gpio.o
HAL_GPIO_WritePin                                 Drivers\STM32F4xx_HAL_Driver\stm32f4xx_hal_gpio.o
HAL_GetDEVID                                      Drivers\STM32F4xx_HAL_Driver\stm32f4xx_hal.o
HAL_GetHalVersion                                 Drivers\STM32F4xx_HAL_Driver\stm32f4xx_hal.o
HAL_GetREVID                                      Drivers\STM32F4xx_HAL_Driver\stm32f4xx_hal.o
HAL_GetTick                                       Drivers\STM32F4xx_HAL_Driver\stm32f4xx_hal.o
                                                  Application\User\ethernetif.o
                                                  Drivers\STM32F4xx_HAL_Driver\stm32f4xx_hal_dma.o
                                                  Drivers\STM32F4xx_HAL_Driver\stm32f4xx_hal_eth.o
                                                  Drivers\STM32F4xx_HAL_Driver\stm32f4xx_hal_flash.o
                                                  Drivers\STM32F4xx_HAL_Driver\stm32f4xx_hal_pwr_ex.o
                                                  Drivers\STM32F4xx_HAL_Driver\stm32f4xx_hal_rcc.o
                                                  Drivers\STM32F4xx_HAL_Driver\stm32f4xx_hal_rcc_ex.o
HAL_IncTick                                       Drivers\STM32F4xx_HAL_Driver\stm32f4xx_hal.o
                                                  Application\User\stm32f4xx_it.o
HAL_Init                                          Drivers\STM32F4xx_HAL_Driver\stm32f4xx_hal.o
                                                  Application\User\main.o
HAL_InitTick                                      Drivers\STM32F4xx_HAL_Driver\stm32f4xx_hal.o
                                                  Drivers\STM32F4xx_HAL_Driver\stm32f4xx_hal_rcc.o
HAL_MPU_ConfigRegion                              Drivers\STM32F4xx_HAL_Driver\stm32f4xx_hal_cortex.o
HAL_MspDeInit                                     Drivers\STM32F4xx_HAL_Driver\stm32f4xx_hal.o
HAL_MspInit                                       Application\User\stm32f4xx_hal_msp.o
                                                  Drivers\STM32F4xx_HAL_Driver\stm32f4xx_hal.o
HAL_NVIC_ClearPendingIRQ                          Drivers\STM32F4xx_HAL_Driver\stm32f4xx_hal_cortex.o
HAL_NVIC_DisableIRQ                               Drivers\STM32F4xx_HAL_Driver\stm32f4xx_hal_cortex.o
                                                  Application\User\ethernetif.o
HAL_NVIC_EnableIRQ                                Drivers\STM32F4xx_HAL_Driver\stm32f4xx_hal_cortex.o
                                                  Application\User\ethernetif.o
HAL_NVIC_GetActive                                Drivers\STM32F4xx_HAL_Driver\stm32f4xx_hal_cortex.o
HAL_NVIC_GetPendingIRQ                            Drivers\STM32F4xx_HAL_Driver\stm32f4xx_hal_cortex.o
HAL_NVIC_GetPriority                              Drivers\STM32F4xx_HAL_Driver\stm32f4xx_hal_cortex.o
HAL_NVIC_GetPriorityGrouping                      Drivers\STM32F4xx_HAL_Driver\stm32f4xx_hal_cortex.o
HAL_NVIC_SetPendingIRQ                            Drivers\STM32F4xx_HAL_Driver\stm32f4xx_hal_cortex.o
HAL_NVIC_SetPriority                              Drivers\STM32F4xx_HAL_Driver\stm32f4xx_hal_cortex.o
                                                  Application\User\ethernetif.o
                                                  Application\User\main.o
                                                  Application\User\stm32f4xx_hal_msp.o
                                                  Drivers\STM32F4xx_HAL_Driver\stm32f4xx_hal.o
HAL_NVIC_SetPriorityGrouping                      Drivers\STM32F4xx_HAL_Driver\stm32f4xx_hal_cortex.o
                                                  Application\User\stm32f4xx_hal_msp.o
                                                  Drivers\STM32F4xx_HAL_Driver\stm32f4xx_hal.o
HAL_NVIC_SystemReset                              Drivers\STM32F4xx_HAL_Driver\stm32f4xx_hal_cortex.o
HAL_PWREx_ControlVoltageScaling                   Drivers\STM32F4xx_HAL_Driver\stm32f4xx_hal_pwr_ex.o
HAL_PWREx_DisableBkUpReg                          Drivers\STM32F4xx_HAL_Driver\stm32f4xx_hal_pwr_ex.o
HAL_PWREx_DisableFlashPowerDown                   Drivers\STM32F4xx_HAL_Driver\stm32f4xx_hal_pwr_ex.o
HAL_PWREx_EnableBkUpReg                           Drivers\STM32F4xx_HAL_Driver\stm32f4xx_hal_pwr_ex.o
HAL_PWREx_EnableFlashPowerDown                    Drivers\STM32F4xx_HAL_Driver\stm32f4xx_hal_pwr_ex.o
HAL_PWREx_GetVoltageRange                         Drivers\STM32F4xx_HAL_Driver\stm32f4xx_hal_pwr_ex.o
HAL_PWR_ConfigPVD                                 Drivers\STM32F4xx_HAL_Driver\stm32f4xx_hal_pwr.o
HAL_PWR_DeInit                                    Drivers\STM32F4xx_HAL_Driver\stm32f4xx_hal_pwr.o
HAL_PWR_DisableBkUpAccess                         Drivers\STM32F4xx_HAL_Driver\stm32f4xx_hal_pwr.o
HAL_PWR_DisablePVD                                Drivers\STM32F4xx_HAL_Driver\stm32f4xx_hal_pwr.o
HAL_PWR_DisableSEVOnPend                          Drivers\STM32F4xx_HAL_Driver\stm32f4xx_hal_pwr.o
HAL_PWR_DisableSleepOnExit                        Drivers\STM32F4xx_HAL_Driver\stm32f4xx_hal_pwr.o
HAL_PWR_DisableWakeUpPin                          Drivers\STM32F4xx_HAL_Driver\stm32f4xx_hal_pwr.o
HAL_PWR_EnableBkUpAccess                          Drivers\STM32F4xx_HAL_Driver\stm32f4xx_hal_pwr.o
HAL_PWR_EnablePVD                                 Drivers\STM32F4xx_HAL_Driver\stm32f4xx_hal_pwr.o
HAL_PWR_EnableSEVOnPend                           Drivers\STM32F4xx_HAL_Driver\stm32f4xx_hal_pwr.o
HAL_PWR_EnableSleepOnExit                         Drivers\STM32F4xx_HAL_Driver\stm32f4xx_hal_pwr.o
HAL_PWR_EnableWakeUpPin                           Drivers\STM32F4xx_HAL_Driver\stm32f4xx_hal_pwr.o
HAL_PWR_EnterSLEEPMode                            Drivers\STM32F4xx_HAL_Driver\stm32f4xx_hal_pwr.o
HAL_PWR_EnterSTANDBYMode                          Drivers\STM32F4xx_HAL_Driver\stm32f4xx_hal_pwr.o
HAL_PWR_EnterSTOPMode                             Drivers\STM32F4xx_HAL_Driver\stm32f4xx_hal_pwr.o
HAL_PWR_PVDCallback                               Drivers\STM32F4xx_HAL_Driver\stm32f4xx_hal_pwr.o
HAL_PWR_PVD_IRQHandler                            Drivers\STM32F4xx_HAL_Driver\stm32f4xx_hal_pwr.o
HAL_RCCEx_GetPeriphCLKConfig                      Drivers\STM32F4xx_HAL_Driver\stm32f4xx_hal_rcc_ex.o
HAL_RCCEx_PeriphCLKConfig                         Drivers\STM32F4xx_HAL_Driver\stm32f4xx_hal_rcc_ex.o
HAL_RCC_CSSCallback                               Drivers\STM32F4xx_HAL_Driver\stm32f4xx_hal_rcc.o
HAL_RCC_ClockConfig                               Drivers\STM32F4xx_HAL_Driver\stm32f4xx_hal_rcc.o
                                                  Application\User\main.o
HAL_RCC_DeInit                                    Drivers\STM32F4xx_HAL_Driver\stm32f4xx_hal_rcc_ex.o
HAL_RCC_DisableCSS                                Drivers\STM32F4xx_HAL_Driver\stm32f4xx_hal_rcc.o
HAL_RCC_EnableCSS                                 Drivers\STM32F4xx_HAL_Driver\stm32f4xx_hal_rcc.o
HAL_RCC_GetClockConfig                            Drivers\STM32F4xx_HAL_Driver\stm32f4xx_hal_rcc.o
HAL_RCC_GetHCLKFreq                               Drivers\STM32F4xx_HAL_Driver\stm32f4xx_hal_rcc.o
                                                  Application\User\main.o
                                                  Drivers\STM32F4xx_HAL_Driver\stm32f4xx_hal.o
                                                  Drivers\STM32F4xx_HAL_Driver\stm32f4xx_hal_eth.o
HAL_RCC_GetOscConfig                              Drivers\STM32F4xx_HAL_Driver\stm32f4xx_hal_rcc.o
HAL_RCC_GetPCLK1Freq                              Drivers\STM32F4xx_HAL_Driver\stm32f4xx_hal_rcc.o
HAL_RCC_GetPCLK2Freq                              Drivers\STM32F4xx_HAL_Driver\stm32f4xx_hal_rcc.o
HAL_RCC_GetSysClockFreq                           Drivers\STM32F4xx_HAL_Driver\stm32f4xx_hal_rcc.o
HAL_RCC_MCOConfig                                 Drivers\STM32F4xx_HAL_Driver\stm32f4xx_hal_rcc.o
HAL_RCC_NMI_IRQHandler                            Drivers\STM32F4xx_HAL_Driver\stm32f4xx_hal_rcc.o
HAL_RCC_OscConfig                                 Drivers\STM32F4xx_HAL_Driver\stm32f4xx_hal_rcc.o
                                                  Application\User\main.o
HAL_ResumeTick                                    Drivers\STM32F4xx_HAL_Driver\stm32f4xx_hal.o
HAL_SYSTICK_CLKSourceConfig                       Drivers\STM32F4xx_HAL_Driver\stm32f4xx_hal_cortex.o
                                                  Application\User\main.o
HAL_SYSTICK_Callback                              Drivers\STM32F4xx_HAL_Driver\stm32f4xx_hal_cortex.o
HAL_SYSTICK_Config                                Drivers\STM32F4xx_HAL_Driver\stm32f4xx_hal_cortex.o
                                                  Application\User\main.o
                                                  Drivers\STM32F4xx_HAL_Driver\stm32f4xx_hal.o
HAL_SYSTICK_IRQHandler                            Drivers\STM32F4xx_HAL_Driver\stm32f4xx_hal_cortex.o
HAL_SuspendTick                                   Drivers\STM32F4xx_HAL_Driver\stm32f4xx_hal.o
HASH_RNG_IRQHandler                               Application\TrueSTUDIO\startup_stm32f407xx.o
HardFault_Handler                                 Application\TrueSTUDIO\startup_stm32f407xx.o
I2C1_ER_IRQHandler                                Application\TrueSTUDIO\startup_stm32f407xx.o
I2C1_EV_IRQHandler                                Application\TrueSTUDIO\startup_stm32f407xx.o
I2C2_ER_IRQHandler                                Application\TrueSTUDIO\startup_stm32f407xx.o
I2C2_EV_IRQHandler                                Application\TrueSTUDIO\startup_stm32f407xx.o
I2C3_ER_IRQHandler                                Application\TrueSTUDIO\startup_stm32f407xx.o
I2C3_EV_IRQHandler                                Application\TrueSTUDIO\startup_stm32f407xx.o
MX_LWIP_Init                                      Application\User\lwip.o
                                                  Application\User\main.o
MX_LWIP_Process                                   Application\User\lwip.o
MemManage_Handler                                 Application\TrueSTUDIO\startup_stm32f407xx.o
NMI_Handler                                       Application\TrueSTUDIO\startup_stm32f407xx.o
OTG_FS_IRQHandler                                 Application\TrueSTUDIO\startup_stm32f407xx.o
OTG_FS_WKUP_IRQHandler                            Application\TrueSTUDIO\startup_stm32f407xx.o
OTG_HS_EP1_IN_IRQHandler                          Application\TrueSTUDIO\startup_stm32f407xx.o
OTG_HS_EP1_OUT_IRQHandler                         Application\TrueSTUDIO\startup_stm32f407xx.o
OTG_HS_IRQHandler                                 Application\TrueSTUDIO\startup_stm32f407xx.o
OTG_HS_WKUP_IRQHandler                            Application\TrueSTUDIO\startup_stm32f407xx.o
PVD_IRQHandler                                    Application\TrueSTUDIO\startup_stm32f407xx.o
PendSV_Handler                                    Middlewares\FreeRTOS\port.o
RCC_IRQHandler                                    Application\TrueSTUDIO\startup_stm32f407xx.o
RTC_Alarm_IRQHandler                              Application\TrueSTUDIO\startup_stm32f407xx.o
RTC_WKUP_IRQHandler                               Application\TrueSTUDIO\startup_stm32f407xx.o
Reset_Handler                                     Application\TrueSTUDIO\startup_stm32f407xx.o
Rx_Buff                                           Application\User\ethernetif.o
SDIO_IRQHandler                                   Application\TrueSTUDIO\startup_stm32f407xx.o
SPI1_IRQHandler                                   Application\TrueSTUDIO\startup_stm32f407xx.o
SPI2_IRQHandler                                   Application\TrueSTUDIO\startup_stm32f407xx.o
SPI3_IRQHandler                                   Application\TrueSTUDIO\startup_stm32f407xx.o
SVC_Handler                                       Middlewares\FreeRTOS\port.o
StartDefaultTask                                  Application\User\main.o
SysTick_Handler                                   Application\User\stm32f4xx_it.o
SystemClock_Config                                Application\User\main.o
SystemCoreClock                                   Drivers\CMSIS\system_stm32f4xx.o
                                                  Drivers\STM32F4xx_HAL_Driver\stm32f4xx_hal_rcc.o
                                                  Middlewares\FreeRTOS\port.o
SystemCoreClockUpdate                             Drivers\CMSIS\system_stm32f4xx.o
SystemInit                                        Drivers\CMSIS\system_stm32f4xx.o
                                                  Application\TrueSTUDIO\startup_stm32f407xx.o
TAMP_STAMP_IRQHandler                             Application\TrueSTUDIO\startup_stm32f407xx.o
TIM1_BRK_TIM9_IRQHandler                          Application\TrueSTUDIO\startup_stm32f407xx.o
TIM1_CC_IRQHandler                                Application\TrueSTUDIO\startup_stm32f407xx.o
TIM1_TRG_COM_TIM11_IRQHandler                     Application\TrueSTUDIO\startup_stm32f407xx.o
TIM1_UP_TIM10_IRQHandler                          Application\TrueSTUDIO\startup_stm32f407xx.o
TIM2_IRQHandler                                   Application\TrueSTUDIO\startup_stm32f407xx.o
TIM3_IRQHandler                                   Application\TrueSTUDIO\startup_stm32f407xx.o
TIM4_IRQHandler                                   Application\TrueSTUDIO\startup_stm32f407xx.o
TIM5_IRQHandler                                   Application\TrueSTUDIO\startup_stm32f407xx.o
TIM6_DAC_IRQHandler                               Application\TrueSTUDIO\startup_stm32f407xx.o
TIM7_IRQHandler                                   Application\TrueSTUDIO\startup_stm32f407xx.o
TIM8_BRK_TIM12_IRQHandler                         Application\TrueSTUDIO\startup_stm32f407xx.o
TIM8_CC_IRQHandler                                Application\TrueSTUDIO\startup_stm32f407xx.o
TIM8_TRG_COM_TIM14_IRQHandler                     Application\TrueSTUDIO\startup_stm32f407xx.o
TIM8_UP_TIM13_IRQHandler                          Application\TrueSTUDIO\startup_stm32f407xx.o
Tx_Buff                                           Application\User\ethernetif.o
UART4_IRQHandler                                  Application\TrueSTUDIO\startup_stm32f407xx.o
UART5_IRQHandler                                  Application\TrueSTUDIO\startup_stm32f407xx.o
USART1_IRQHandler                                 Application\TrueSTUDIO\startup_stm32f407xx.o
USART2_IRQHandler                                 Application\TrueSTUDIO\startup_stm32f407xx.o
USART3_IRQHandler                                 Application\TrueSTUDIO\startup_stm32f407xx.o
USART6_IRQHandler                                 Application\TrueSTUDIO\startup_stm32f407xx.o
UsageFault_Handler                                Application\TrueSTUDIO\startup_stm32f407xx.o
WWDG_IRQHandler                                   Application\TrueSTUDIO\startup_stm32f407xx.o
__deregister_frame_info                           c:/program files (x86)/atollic/truestudio for arm pro 5.3.1/armtools/bin/../lib/gcc/arm-atollic-eabi/4.8.3/armv7e-m/fpu/crtbegin.o
__dso_handle                                      c:/program files (x86)/atollic/truestudio for arm pro 5.3.1/armtools/bin/../lib/gcc/arm-atollic-eabi/4.8.3/armv7e-m/fpu/crtbegin.o
__env                                             c:/program files (x86)/atollic/truestudio for arm pro 5.3.1/armtools/bin/../lib/gcc/arm-atollic-eabi/4.8.3/../../../../arm-atollic-eabi/lib/armv7e-m/fpu\libc.a(lib_a-syscalls.o)
__init_array_end                                  c:/program files (x86)/atollic/truestudio for arm pro 5.3.1/armtools/bin/../lib/gcc/arm-atollic-eabi/4.8.3/../../../../arm-atollic-eabi/lib/armv7e-m/fpu\libc.a(lib_a-init.o)
__init_array_start                                c:/program files (x86)/atollic/truestudio for arm pro 5.3.1/armtools/bin/../lib/gcc/arm-atollic-eabi/4.8.3/../../../../arm-atollic-eabi/lib/armv7e-m/fpu\libc.a(lib_a-init.o)
__libc_init_array                                 c:/program files (x86)/atollic/truestudio for arm pro 5.3.1/armtools/bin/../lib/gcc/arm-atollic-eabi/4.8.3/../../../../arm-atollic-eabi/lib/armv7e-m/fpu\libc.a(lib_a-init.o)
                                                  Application\TrueSTUDIO\startup_stm32f407xx.o
__malloc_av_                                      c:/program files (x86)/atollic/truestudio for arm pro 5.3.1/armtools/bin/../lib/gcc/arm-atollic-eabi/4.8.3/../../../../arm-atollic-eabi/lib/armv7e-m/fpu\libc.a(lib_a-mallocr.o)
                                                  c:/program files (x86)/atollic/truestudio for arm pro 5.3.1/armtools/bin/../lib/gcc/arm-atollic-eabi/4.8.3/../../../../arm-atollic-eabi/lib/armv7e-m/fpu\libc.a(lib_a-freer.o)
__malloc_current_mallinfo                         c:/program files (x86)/atollic/truestudio for arm pro 5.3.1/armtools/bin/../lib/gcc/arm-atollic-eabi/4.8.3/../../../../arm-atollic-eabi/lib/armv7e-m/fpu\libc.a(lib_a-mallocr.o)
                                                  c:/program files (x86)/atollic/truestudio for arm pro 5.3.1/armtools/bin/../lib/gcc/arm-atollic-eabi/4.8.3/../../../../arm-atollic-eabi/lib/armv7e-m/fpu\libc.a(lib_a-freer.o)
__malloc_lock                                     c:/program files (x86)/atollic/truestudio for arm pro 5.3.1/armtools/bin/../lib/gcc/arm-atollic-eabi/4.8.3/../../../../arm-atollic-eabi/lib/armv7e-m/fpu\libc.a(lib_a-mlock.o)
                                                  c:/program files (x86)/atollic/truestudio for arm pro 5.3.1/armtools/bin/../lib/gcc/arm-atollic-eabi/4.8.3/../../../../arm-atollic-eabi/lib/armv7e-m/fpu\libc.a(lib_a-freer.o)
                                                  c:/program files (x86)/atollic/truestudio for arm pro 5.3.1/armtools/bin/../lib/gcc/arm-atollic-eabi/4.8.3/../../../../arm-atollic-eabi/lib/armv7e-m/fpu\libc.a(lib_a-mallocr.o)
__malloc_max_sbrked_mem                           c:/program files (x86)/atollic/truestudio for arm pro 5.3.1/armtools/bin/../lib/gcc/arm-atollic-eabi/4.8.3/../../../../arm-atollic-eabi/lib/armv7e-m/fpu\libc.a(lib_a-mallocr.o)
__malloc_max_total_mem                            c:/program files (x86)/atollic/truestudio for arm pro 5.3.1/armtools/bin/../lib/gcc/arm-atollic-eabi/4.8.3/../../../../arm-atollic-eabi/lib/armv7e-m/fpu\libc.a(lib_a-mallocr.o)
__malloc_sbrk_base                                c:/program files (x86)/atollic/truestudio for arm pro 5.3.1/armtools/bin/../lib/gcc/arm-atollic-eabi/4.8.3/../../../../arm-atollic-eabi/lib/armv7e-m/fpu\libc.a(lib_a-mallocr.o)
                                                  c:/program files (x86)/atollic/truestudio for arm pro 5.3.1/armtools/bin/../lib/gcc/arm-atollic-eabi/4.8.3/../../../../arm-atollic-eabi/lib/armv7e-m/fpu\libc.a(lib_a-freer.o)
__malloc_top_pad                                  c:/program files (x86)/atollic/truestudio for arm pro 5.3.1/armtools/bin/../lib/gcc/arm-atollic-eabi/4.8.3/../../../../arm-atollic-eabi/lib/armv7e-m/fpu\libc.a(lib_a-mallocr.o)
                                                  c:/program files (x86)/atollic/truestudio for arm pro 5.3.1/armtools/bin/../lib/gcc/arm-atollic-eabi/4.8.3/../../../../arm-atollic-eabi/lib/armv7e-m/fpu\libc.a(lib_a-freer.o)
__malloc_trim_threshold                           c:/program files (x86)/atollic/truestudio for arm pro 5.3.1/armtools/bin/../lib/gcc/arm-atollic-eabi/4.8.3/../../../../arm-atollic-eabi/lib/armv7e-m/fpu\libc.a(lib_a-mallocr.o)
                                                  c:/program files (x86)/atollic/truestudio for arm pro 5.3.1/armtools/bin/../lib/gcc/arm-atollic-eabi/4.8.3/../../../../arm-atollic-eabi/lib/armv7e-m/fpu\libc.a(lib_a-freer.o)
__malloc_unlock                                   c:/program files (x86)/atollic/truestudio for arm pro 5.3.1/armtools/bin/../lib/gcc/arm-atollic-eabi/4.8.3/../../../../arm-atollic-eabi/lib/armv7e-m/fpu\libc.a(lib_a-mlock.o)
                                                  c:/program files (x86)/atollic/truestudio for arm pro 5.3.1/armtools/bin/../lib/gcc/arm-atollic-eabi/4.8.3/../../../../arm-atollic-eabi/lib/armv7e-m/fpu\libc.a(lib_a-freer.o)
                                                  c:/program files (x86)/atollic/truestudio for arm pro 5.3.1/armtools/bin/../lib/gcc/arm-atollic-eabi/4.8.3/../../../../arm-atollic-eabi/lib/armv7e-m/fpu\libc.a(lib_a-mallocr.o)
__preinit_array_end                               c:/program files (x86)/atollic/truestudio for arm pro 5.3.1/armtools/bin/../lib/gcc/arm-atollic-eabi/4.8.3/../../../../arm-atollic-eabi/lib/armv7e-m/fpu\libc.a(lib_a-init.o)
__preinit_array_start                             c:/program files (x86)/atollic/truestudio for arm pro 5.3.1/armtools/bin/../lib/gcc/arm-atollic-eabi/4.8.3/../../../../arm-atollic-eabi/lib/armv7e-m/fpu\libc.a(lib_a-init.o)
__register_frame_info                             c:/program files (x86)/atollic/truestudio for arm pro 5.3.1/armtools/bin/../lib/gcc/arm-atollic-eabi/4.8.3/armv7e-m/fpu/crtbegin.o
__sf_fake_stderr                                  c:/program files (x86)/atollic/truestudio for arm pro 5.3.1/armtools/bin/../lib/gcc/arm-atollic-eabi/4.8.3/../../../../arm-atollic-eabi/lib/armv7e-m/fpu\libc.a(lib_a-impure.o)
__sf_fake_stdin                                   c:/program files (x86)/atollic/truestudio for arm pro 5.3.1/armtools/bin/../lib/gcc/arm-atollic-eabi/4.8.3/../../../../arm-atollic-eabi/lib/armv7e-m/fpu\libc.a(lib_a-impure.o)
__sf_fake_stdout                                  c:/program files (x86)/atollic/truestudio for arm pro 5.3.1/armtools/bin/../lib/gcc/arm-atollic-eabi/4.8.3/../../../../arm-atollic-eabi/lib/armv7e-m/fpu\libc.a(lib_a-impure.o)
_close                                            c:/program files (x86)/atollic/truestudio for arm pro 5.3.1/armtools/bin/../lib/gcc/arm-atollic-eabi/4.8.3/../../../../arm-atollic-eabi/lib/armv7e-m/fpu\libc.a(lib_a-syscalls.o)
_ebss                                             Application\TrueSTUDIO\startup_stm32f407xx.o
_edata                                            Application\TrueSTUDIO\startup_stm32f407xx.o
_estack                                           Application\TrueSTUDIO\startup_stm32f407xx.o
_execve                                           c:/program files (x86)/atollic/truestudio for arm pro 5.3.1/armtools/bin/../lib/gcc/arm-atollic-eabi/4.8.3/../../../../arm-atollic-eabi/lib/armv7e-m/fpu\libc.a(lib_a-syscalls.o)
_exit                                             c:/program files (x86)/atollic/truestudio for arm pro 5.3.1/armtools/bin/../lib/gcc/arm-atollic-eabi/4.8.3/../../../../arm-atollic-eabi/lib/armv7e-m/fpu\libc.a(lib_a-syscalls.o)
_fini                                             c:/program files (x86)/atollic/truestudio for arm pro 5.3.1/armtools/bin/../lib/gcc/arm-atollic-eabi/4.8.3/armv7e-m/fpu/crti.o
_fork                                             c:/program files (x86)/atollic/truestudio for arm pro 5.3.1/armtools/bin/../lib/gcc/arm-atollic-eabi/4.8.3/../../../../arm-atollic-eabi/lib/armv7e-m/fpu\libc.a(lib_a-syscalls.o)
_free_r                                           c:/program files (x86)/atollic/truestudio for arm pro 5.3.1/armtools/bin/../lib/gcc/arm-atollic-eabi/4.8.3/../../../../arm-atollic-eabi/lib/armv7e-m/fpu\libc.a(lib_a-freer.o)
                                                  c:/program files (x86)/atollic/truestudio for arm pro 5.3.1/armtools/bin/../lib/gcc/arm-atollic-eabi/4.8.3/../../../../arm-atollic-eabi/lib/armv7e-m/fpu\libc.a(lib_a-reent.o)
                                                  c:/program files (x86)/atollic/truestudio for arm pro 5.3.1/armtools/bin/../lib/gcc/arm-atollic-eabi/4.8.3/../../../../arm-atollic-eabi/lib/armv7e-m/fpu\libc.a(lib_a-mallocr.o)
                                                  c:/program files (x86)/atollic/truestudio for arm pro 5.3.1/armtools/bin/../lib/gcc/arm-atollic-eabi/4.8.3/../../../../arm-atollic-eabi/lib/armv7e-m/fpu\libc.a(lib_a-malloc.o)
_fstat                                            c:/program files (x86)/atollic/truestudio for arm pro 5.3.1/armtools/bin/../lib/gcc/arm-atollic-eabi/4.8.3/../../../../arm-atollic-eabi/lib/armv7e-m/fpu\libc.a(lib_a-syscalls.o)
_getpid                                           c:/program files (x86)/atollic/truestudio for arm pro 5.3.1/armtools/bin/../lib/gcc/arm-atollic-eabi/4.8.3/../../../../arm-atollic-eabi/lib/armv7e-m/fpu\libc.a(lib_a-syscalls.o)
_global_impure_ptr                                c:/program files (x86)/atollic/truestudio for arm pro 5.3.1/armtools/bin/../lib/gcc/arm-atollic-eabi/4.8.3/../../../../arm-atollic-eabi/lib/armv7e-m/fpu\libc.a(lib_a-impure.o)
_impure_ptr                                       c:/program files (x86)/atollic/truestudio for arm pro 5.3.1/armtools/bin/../lib/gcc/arm-atollic-eabi/4.8.3/../../../../arm-atollic-eabi/lib/armv7e-m/fpu\libc.a(lib_a-impure.o)
                                                  c:/program files (x86)/atollic/truestudio for arm pro 5.3.1/armtools/bin/../lib/gcc/arm-atollic-eabi/4.8.3/../../../../arm-atollic-eabi/lib/armv7e-m/fpu\libc.a(lib_a-reent.o)
                                                  c:/program files (x86)/atollic/truestudio for arm pro 5.3.1/armtools/bin/../lib/gcc/arm-atollic-eabi/4.8.3/../../../../arm-atollic-eabi/lib/armv7e-m/fpu\libc.a(lib_a-malloc.o)
_init                                             c:/program files (x86)/atollic/truestudio for arm pro 5.3.1/armtools/bin/../lib/gcc/arm-atollic-eabi/4.8.3/armv7e-m/fpu/crti.o
                                                  c:/program files (x86)/atollic/truestudio for arm pro 5.3.1/armtools/bin/../lib/gcc/arm-atollic-eabi/4.8.3/../../../../arm-atollic-eabi/lib/armv7e-m/fpu\libc.a(lib_a-init.o)
_isatty                                           c:/program files (x86)/atollic/truestudio for arm pro 5.3.1/armtools/bin/../lib/gcc/arm-atollic-eabi/4.8.3/../../../../arm-atollic-eabi/lib/armv7e-m/fpu\libc.a(lib_a-syscalls.o)
_kill                                             c:/program files (x86)/atollic/truestudio for arm pro 5.3.1/armtools/bin/../lib/gcc/arm-atollic-eabi/4.8.3/../../../../arm-atollic-eabi/lib/armv7e-m/fpu\libc.a(lib_a-syscalls.o)
_link                                             c:/program files (x86)/atollic/truestudio for arm pro 5.3.1/armtools/bin/../lib/gcc/arm-atollic-eabi/4.8.3/../../../../arm-atollic-eabi/lib/armv7e-m/fpu\libc.a(lib_a-syscalls.o)
_lseek                                            c:/program files (x86)/atollic/truestudio for arm pro 5.3.1/armtools/bin/../lib/gcc/arm-atollic-eabi/4.8.3/../../../../arm-atollic-eabi/lib/armv7e-m/fpu\libc.a(lib_a-syscalls.o)
_malloc_r                                         c:/program files (x86)/atollic/truestudio for arm pro 5.3.1/armtools/bin/../lib/gcc/arm-atollic-eabi/4.8.3/../../../../arm-atollic-eabi/lib/armv7e-m/fpu\libc.a(lib_a-mallocr.o)
                                                  c:/program files (x86)/atollic/truestudio for arm pro 5.3.1/armtools/bin/../lib/gcc/arm-atollic-eabi/4.8.3/../../../../arm-atollic-eabi/lib/armv7e-m/fpu\libc.a(lib_a-malloc.o)
_malloc_trim_r                                    c:/program files (x86)/atollic/truestudio for arm pro 5.3.1/armtools/bin/../lib/gcc/arm-atollic-eabi/4.8.3/../../../../arm-atollic-eabi/lib/armv7e-m/fpu\libc.a(lib_a-freer.o)
_open                                             c:/program files (x86)/atollic/truestudio for arm pro 5.3.1/armtools/bin/../lib/gcc/arm-atollic-eabi/4.8.3/../../../../arm-atollic-eabi/lib/armv7e-m/fpu\libc.a(lib_a-syscalls.o)
_read                                             c:/program files (x86)/atollic/truestudio for arm pro 5.3.1/armtools/bin/../lib/gcc/arm-atollic-eabi/4.8.3/../../../../arm-atollic-eabi/lib/armv7e-m/fpu\libc.a(lib_a-syscalls.o)
_reclaim_reent                                    c:/program files (x86)/atollic/truestudio for arm pro 5.3.1/armtools/bin/../lib/gcc/arm-atollic-eabi/4.8.3/../../../../arm-atollic-eabi/lib/armv7e-m/fpu\libc.a(lib_a-reent.o)
_sbrk                                             c:/program files (x86)/atollic/truestudio for arm pro 5.3.1/armtools/bin/../lib/gcc/arm-atollic-eabi/4.8.3/../../../../arm-atollic-eabi/lib/armv7e-m/fpu\libc.a(lib_a-syscalls.o)
                                                  c:/program files (x86)/atollic/truestudio for arm pro 5.3.1/armtools/bin/../lib/gcc/arm-atollic-eabi/4.8.3/../../../../arm-atollic-eabi/lib/armv7e-m/fpu\libc.a(lib_a-sbrkr.o)
_sbrk_r                                           c:/program files (x86)/atollic/truestudio for arm pro 5.3.1/armtools/bin/../lib/gcc/arm-atollic-eabi/4.8.3/../../../../arm-atollic-eabi/lib/armv7e-m/fpu\libc.a(lib_a-sbrkr.o)
                                                  c:/program files (x86)/atollic/truestudio for arm pro 5.3.1/armtools/bin/../lib/gcc/arm-atollic-eabi/4.8.3/../../../../arm-atollic-eabi/lib/armv7e-m/fpu\libc.a(lib_a-freer.o)
                                                  c:/program files (x86)/atollic/truestudio for arm pro 5.3.1/armtools/bin/../lib/gcc/arm-atollic-eabi/4.8.3/../../../../arm-atollic-eabi/lib/armv7e-m/fpu\libc.a(lib_a-mallocr.o)
_sbss                                             Application\TrueSTUDIO\startup_stm32f407xx.o
_sdata                                            Application\TrueSTUDIO\startup_stm32f407xx.o
_sidata                                           Application\TrueSTUDIO\startup_stm32f407xx.o
_stat                                             c:/program files (x86)/atollic/truestudio for arm pro 5.3.1/armtools/bin/../lib/gcc/arm-atollic-eabi/4.8.3/../../../../arm-atollic-eabi/lib/armv7e-m/fpu\libc.a(lib_a-syscalls.o)
_times                                            c:/program files (x86)/atollic/truestudio for arm pro 5.3.1/armtools/bin/../lib/gcc/arm-atollic-eabi/4.8.3/../../../../arm-atollic-eabi/lib/armv7e-m/fpu\libc.a(lib_a-syscalls.o)
_unlink                                           c:/program files (x86)/atollic/truestudio for arm pro 5.3.1/armtools/bin/../lib/gcc/arm-atollic-eabi/4.8.3/../../../../arm-atollic-eabi/lib/armv7e-m/fpu\libc.a(lib_a-syscalls.o)
_wait                                             c:/program files (x86)/atollic/truestudio for arm pro 5.3.1/armtools/bin/../lib/gcc/arm-atollic-eabi/4.8.3/../../../../arm-atollic-eabi/lib/armv7e-m/fpu\libc.a(lib_a-syscalls.o)
_write                                            c:/program files (x86)/atollic/truestudio for arm pro 5.3.1/armtools/bin/../lib/gcc/arm-atollic-eabi/4.8.3/../../../../arm-atollic-eabi/lib/armv7e-m/fpu\libc.a(lib_a-syscalls.o)
cleanup_glue                                      c:/program files (x86)/atollic/truestudio for arm pro 5.3.1/armtools/bin/../lib/gcc/arm-atollic-eabi/4.8.3/../../../../arm-atollic-eabi/lib/armv7e-m/fpu\libc.a(lib_a-reent.o)
current_header                                    Middlewares\LwIP\ip.o
current_iphdr_dest                                Middlewares\LwIP\icmp.o
                                                  Middlewares\LwIP\ip.o
                                                  Middlewares\LwIP\raw.o
                                                  Middlewares\LwIP\tcp_in.o
                                                  Middlewares\LwIP\udp.o
current_iphdr_src                                 Middlewares\LwIP\api_msg.o
                                                  Middlewares\LwIP\icmp.o
                                                  Middlewares\LwIP\ip.o
                                                  Middlewares\LwIP\raw.o
                                                  Middlewares\LwIP\tcp_in.o
                                                  Middlewares\LwIP\udp.o
current_netif                                     Middlewares\LwIP\ip.o
defaultTaskHandle                                 Application\User\main.o
dhcp_arp_reply                                    Middlewares\LwIP\dhcp.o
                                                  Middlewares\LwIP\etharp.o
dhcp_cleanup                                      Middlewares\LwIP\dhcp.o
dhcp_coarse_tmr                                   Middlewares\LwIP\dhcp.o
                                                  Middlewares\LwIP\lwip_timers.o
dhcp_fine_tmr                                     Middlewares\LwIP\dhcp.o
                                                  Middlewares\LwIP\lwip_timers.o
dhcp_inform                                       Middlewares\LwIP\dhcp.o
dhcp_network_changed                              Middlewares\LwIP\dhcp.o
                                                  Middlewares\LwIP\netif.o
dhcp_release                                      Middlewares\LwIP\dhcp.o
dhcp_renew                                        Middlewares\LwIP\dhcp.o
dhcp_rx_options_given                             Middlewares\LwIP\dhcp.o
dhcp_rx_options_val                               Middlewares\LwIP\dhcp.o
dhcp_set_struct                                   Middlewares\LwIP\dhcp.o
dhcp_start                                        Middlewares\LwIP\dhcp.o
                                                  Application\User\lwip.o
dhcp_stop                                         Middlewares\LwIP\dhcp.o
do_bind                                           Middlewares\LwIP\api_msg.o
                                                  Middlewares\LwIP\api_lib.o
do_close                                          Middlewares\LwIP\api_msg.o
                                                  Middlewares\LwIP\api_lib.o
do_connect                                        Middlewares\LwIP\api_msg.o
                                                  Middlewares\LwIP\api_lib.o
do_delconn                                        Middlewares\LwIP\api_msg.o
                                                  Middlewares\LwIP\api_lib.o
do_disconnect                                     Middlewares\LwIP\api_msg.o
                                                  Middlewares\LwIP\api_lib.o
do_getaddr                                        Middlewares\LwIP\api_msg.o
                                                  Middlewares\LwIP\api_lib.o
do_listen                                         Middlewares\LwIP\api_msg.o
                                                  Middlewares\LwIP\api_lib.o
do_newconn                                        Middlewares\LwIP\api_msg.o
                                                  Middlewares\LwIP\api_lib.o
do_recv                                           Middlewares\LwIP\api_msg.o
                                                  Middlewares\LwIP\api_lib.o
do_send                                           Middlewares\LwIP\api_msg.o
                                                  Middlewares\LwIP\api_lib.o
do_write                                          Middlewares\LwIP\api_msg.o
                                                  Middlewares\LwIP\api_lib.o
end                                               c:/program files (x86)/atollic/truestudio for arm pro 5.3.1/armtools/bin/../lib/gcc/arm-atollic-eabi/4.8.3/../../../../arm-atollic-eabi/lib/armv7e-m/fpu\libc.a(lib_a-syscalls.o)
environ                                           c:/program files (x86)/atollic/truestudio for arm pro 5.3.1/armtools/bin/../lib/gcc/arm-atollic-eabi/4.8.3/../../../../arm-atollic-eabi/lib/armv7e-m/fpu\libc.a(lib_a-syscalls.o)
errno                                             c:/program files (x86)/atollic/truestudio for arm pro 5.3.1/armtools/bin/../lib/gcc/arm-atollic-eabi/4.8.3/../../../../arm-atollic-eabi/lib/armv7e-m/fpu\libc.a(lib_a-reent.o)
                                                  c:/program files (x86)/atollic/truestudio for arm pro 5.3.1/armtools/bin/../lib/gcc/arm-atollic-eabi/4.8.3/../../../../arm-atollic-eabi/lib/armv7e-m/fpu\libc.a(lib_a-syscalls.o)
                                                  c:/program files (x86)/atollic/truestudio for arm pro 5.3.1/armtools/bin/../lib/gcc/arm-atollic-eabi/4.8.3/../../../../arm-atollic-eabi/lib/armv7e-m/fpu\libc.a(lib_a-sbrkr.o)
etharp_cleanup_netif                              Middlewares\LwIP\etharp.o
                                                  Middlewares\LwIP\netif.o
etharp_find_addr                                  Middlewares\LwIP\etharp.o
etharp_output                                     Middlewares\LwIP\etharp.o
                                                  Application\User\ethernetif.o
etharp_query                                      Middlewares\LwIP\etharp.o
                                                  Middlewares\LwIP\dhcp.o
etharp_request                                    Middlewares\LwIP\etharp.o
                                                  Middlewares\LwIP\netif.o
etharp_tmr                                        Middlewares\LwIP\etharp.o
                                                  Middlewares\LwIP\lwip_timers.o
ethbroadcast                                      Middlewares\LwIP\etharp.o
ethernet_input                                    Middlewares\LwIP\etharp.o
                                                  Middlewares\LwIP\tcpip.o
ethernetif_init                                   Application\User\ethernetif.o
                                                  Application\User\lwip.o
ethernetif_input                                  Application\User\ethernetif.o
                                                  Application\User\lwip.o
ethernetif_set_link                               Application\User\ethernetif.o
ethzero                                           Middlewares\LwIP\etharp.o
free                                              c:/program files (x86)/atollic/truestudio for arm pro 5.3.1/armtools/bin/../lib/gcc/arm-atollic-eabi/4.8.3/../../../../arm-atollic-eabi/lib/armv7e-m/fpu\libc.a(lib_a-malloc.o)
g_pfnVectors                                      Application\TrueSTUDIO\startup_stm32f407xx.o
gnetif                                            Application\User\lwip.o
gw                                                Application\User\lwip.o
heth                                              Application\User\ethernetif.o
                                                  Application\User\stm32f4xx_it.o
icmp_dest_unreach                                 Middlewares\LwIP\icmp.o
                                                  Middlewares\LwIP\ip.o
                                                  Middlewares\LwIP\udp.o
icmp_input                                        Middlewares\LwIP\icmp.o
                                                  Middlewares\LwIP\ip.o
icmp_time_exceeded                                Middlewares\LwIP\icmp.o
                                                  Middlewares\LwIP\ip_frag.o
inet_chksum                                       Middlewares\LwIP\inet_chksum.o
                                                  Middlewares\LwIP\icmp.o
                                                  Middlewares\LwIP\ip_frag.o
inet_chksum_pbuf                                  Middlewares\LwIP\inet_chksum.o
                                                  Middlewares\LwIP\icmp.o
inet_chksum_pseudo                                Middlewares\LwIP\inet_chksum.o
inet_chksum_pseudo_partial                        Middlewares\LwIP\inet_chksum.o
initialise_monitor_handles                        c:/program files (x86)/atollic/truestudio for arm pro 5.3.1/armtools/bin/../lib/gcc/arm-atollic-eabi/4.8.3/../../../../arm-atollic-eabi/lib/armv7e-m/fpu\libc.a(lib_a-syscalls.o)
ip4_addr_isbroadcast                              Middlewares\LwIP\ip_addr.o
                                                  Middlewares\LwIP\etharp.o
                                                  Middlewares\LwIP\icmp.o
                                                  Middlewares\LwIP\ip.o
                                                  Middlewares\LwIP\tcp_in.o
                                                  Middlewares\LwIP\udp.o
ip4_addr_netmask_valid                            Middlewares\LwIP\ip_addr.o
ip_addr_any                                       Middlewares\LwIP\ip_addr.o
                                                  Middlewares\LwIP\dhcp.o
ip_addr_broadcast                                 Middlewares\LwIP\ip_addr.o
                                                  Middlewares\LwIP\dhcp.o
ip_frag                                           Middlewares\LwIP\ip_frag.o
                                                  Middlewares\LwIP\ip.o
ip_input                                          Middlewares\LwIP\ip.o
                                                  Middlewares\LwIP\etharp.o
                                                  Middlewares\LwIP\tcpip.o
ip_output                                         Middlewares\LwIP\ip.o
                                                  Middlewares\LwIP\icmp.o
                                                  Middlewares\LwIP\tcp_out.o
ip_output_if                                      Middlewares\LwIP\ip.o
                                                  Middlewares\LwIP\icmp.o
                                                  Middlewares\LwIP\raw.o
                                                  Middlewares\LwIP\udp.o
ip_reass                                          Middlewares\LwIP\ip_frag.o
                                                  Middlewares\LwIP\ip.o
ip_reass_tmr                                      Middlewares\LwIP\ip_frag.o
                                                  Middlewares\LwIP\lwip_timers.o
ip_route                                          Middlewares\LwIP\ip.o
                                                  Middlewares\LwIP\raw.o
                                                  Middlewares\LwIP\tcp.o
                                                  Middlewares\LwIP\tcp_out.o
                                                  Middlewares\LwIP\udp.o
ipaddr                                            Application\User\lwip.o
ipaddr_addr                                       Middlewares\LwIP\ip_addr.o
ipaddr_aton                                       Middlewares\LwIP\ip_addr.o
ipaddr_ntoa                                       Middlewares\LwIP\ip_addr.o
ipaddr_ntoa_r                                     Middlewares\LwIP\ip_addr.o
lwip_accept                                       Middlewares\LwIP\sockets.o
lwip_bind                                         Middlewares\LwIP\sockets.o
lwip_close                                        Middlewares\LwIP\sockets.o
lwip_connect                                      Middlewares\LwIP\sockets.o
                                                  Application\User\main.o
lwip_fcntl                                        Middlewares\LwIP\sockets.o
lwip_getpeername                                  Middlewares\LwIP\sockets.o
lwip_getsockname                                  Middlewares\LwIP\sockets.o
lwip_getsockopt                                   Middlewares\LwIP\sockets.o
lwip_htonl                                        Middlewares\LwIP\def.o
                                                  Middlewares\LwIP\dhcp.o
                                                  Middlewares\LwIP\ip_addr.o
                                                  Middlewares\LwIP\tcp_out.o
lwip_htons                                        Middlewares\LwIP\def.o
                                                  Application\User\main.o
                                                  Middlewares\LwIP\etharp.o
                                                  Middlewares\LwIP\inet_chksum.o
                                                  Middlewares\LwIP\ip.o
                                                  Middlewares\LwIP\ip_frag.o
                                                  Middlewares\LwIP\sockets.o
                                                  Middlewares\LwIP\tcp_in.o
                                                  Middlewares\LwIP\tcp_out.o
                                                  Middlewares\LwIP\udp.o
lwip_init                                         Middlewares\LwIP\init.o
                                                  Middlewares\LwIP\tcpip.o
lwip_ioctl                                        Middlewares\LwIP\sockets.o
lwip_listen                                       Middlewares\LwIP\sockets.o
lwip_ntohl                                        Middlewares\LwIP\def.o
                                                  Middlewares\LwIP\dhcp.o
                                                  Middlewares\LwIP\tcp_in.o
                                                  Middlewares\LwIP\tcp_out.o
lwip_ntohs                                        Middlewares\LwIP\def.o
                                                  Middlewares\LwIP\ip.o
                                                  Middlewares\LwIP\ip_frag.o
                                                  Middlewares\LwIP\sockets.o
                                                  Middlewares\LwIP\tcp_in.o
                                                  Middlewares\LwIP\tcp_out.o
                                                  Middlewares\LwIP\udp.o
lwip_read                                         Middlewares\LwIP\sockets.o
lwip_recv                                         Middlewares\LwIP\sockets.o
                                                  Application\User\main.o
lwip_recvfrom                                     Middlewares\LwIP\sockets.o
lwip_select                                       Middlewares\LwIP\sockets.o
lwip_send                                         Middlewares\LwIP\sockets.o
lwip_sendto                                       Middlewares\LwIP\sockets.o
lwip_setsockopt                                   Middlewares\LwIP\sockets.o
lwip_shutdown                                     Middlewares\LwIP\sockets.o
lwip_socket                                       Middlewares\LwIP\sockets.o
                                                  Application\User\main.o
lwip_socket_init                                  Middlewares\LwIP\sockets.o
                                                  Middlewares\LwIP\init.o
lwip_write                                        Middlewares\LwIP\sockets.o
main                                              Application\User\main.o
                                                  Application\TrueSTUDIO\startup_stm32f407xx.o
malloc                                            c:/program files (x86)/atollic/truestudio for arm pro 5.3.1/armtools/bin/../lib/gcc/arm-atollic-eabi/4.8.3/../../../../arm-atollic-eabi/lib/armv7e-m/fpu\libc.a(lib_a-malloc.o)
                                                  Application\User\main.o
malloc_getpagesize_P                              c:/program files (x86)/atollic/truestudio for arm pro 5.3.1/armtools/bin/../lib/gcc/arm-atollic-eabi/4.8.3/../../../../arm-atollic-eabi/lib/armv7e-m/fpu\libc.a(lib_a-freer.o)
                                                  c:/program files (x86)/atollic/truestudio for arm pro 5.3.1/armtools/bin/../lib/gcc/arm-atollic-eabi/4.8.3/../../../../arm-atollic-eabi/lib/armv7e-m/fpu\libc.a(lib_a-mallocr.o)
mem_calloc                                        Middlewares\LwIP\mem.o
mem_free                                          Middlewares\LwIP\mem.o
                                                  Middlewares\LwIP\dhcp.o
                                                  Middlewares\LwIP\pbuf.o
                                                  Middlewares\LwIP\tcpip.o
mem_free_callback                                 Middlewares\LwIP\tcpip.o
mem_init                                          Middlewares\LwIP\mem.o
                                                  Middlewares\LwIP\init.o
mem_malloc                                        Middlewares\LwIP\mem.o
                                                  Middlewares\LwIP\dhcp.o
                                                  Middlewares\LwIP\pbuf.o
mem_trim                                          Middlewares\LwIP\mem.o
                                                  Middlewares\LwIP\pbuf.o
memcmp                                            c:/program files (x86)/atollic/truestudio for arm pro 5.3.1/armtools/bin/../lib/gcc/arm-atollic-eabi/4.8.3/../../../../arm-atollic-eabi/lib/armv7e-m/fpu\libc.a(lib_a-memcmp.o)
                                                  Middlewares\LwIP\etharp.o
memcpy                                            c:/program files (x86)/atollic/truestudio for arm pro 5.3.1/armtools/bin/../lib/gcc/arm-atollic-eabi/4.8.3/../../../../arm-atollic-eabi/lib/armv7e-m/fpu\libc.a(lib_a-memcpy-stub.o)
                                                  Application\User\ethernetif.o
                                                  Middlewares\FreeRTOS\queue.o
                                                  Middlewares\LwIP\etharp.o
                                                  Middlewares\LwIP\icmp.o
                                                  Middlewares\LwIP\ip_frag.o
                                                  Middlewares\LwIP\pbuf.o
                                                  Middlewares\LwIP\sockets.o
                                                  Middlewares\LwIP\tcp.o
                                                  Middlewares\LwIP\tcp_out.o
memp_free                                         Middlewares\LwIP\memp.o
                                                  Middlewares\LwIP\api_lib.o
                                                  Middlewares\LwIP\api_msg.o
                                                  Middlewares\LwIP\ip_frag.o
                                                  Middlewares\LwIP\lwip_timers.o
                                                  Middlewares\LwIP\netbuf.o
                                                  Middlewares\LwIP\pbuf.o
                                                  Middlewares\LwIP\raw.o
                                                  Middlewares\LwIP\tcp.o
                                                  Middlewares\LwIP\tcp_in.o
                                                  Middlewares\LwIP\tcpip.o
                                                  Middlewares\LwIP\udp.o
memp_init                                         Middlewares\LwIP\memp.o
                                                  Middlewares\LwIP\init.o
memp_malloc                                       Middlewares\LwIP\memp.o
                                                  Middlewares\LwIP\api_lib.o
                                                  Middlewares\LwIP\api_msg.o
                                                  Middlewares\LwIP\ip_frag.o
                                                  Middlewares\LwIP\lwip_timers.o
                                                  Middlewares\LwIP\netbuf.o
                                                  Middlewares\LwIP\pbuf.o
                                                  Middlewares\LwIP\raw.o
                                                  Middlewares\LwIP\tcp.o
                                                  Middlewares\LwIP\tcp_out.o
                                                  Middlewares\LwIP\tcpip.o
                                                  Middlewares\LwIP\udp.o
memset                                            c:/program files (x86)/atollic/truestudio for arm pro 5.3.1/armtools/bin/../lib/gcc/arm-atollic-eabi/4.8.3/../../../../arm-atollic-eabi/lib/armv7e-m/fpu\libc.a(lib_a-memset.o)
                                                  Middlewares\FreeRTOS\cmsis_os.o
                                                  Middlewares\FreeRTOS\tasks.o
                                                  Middlewares\LwIP\dhcp.o
                                                  Middlewares\LwIP\ip_frag.o
                                                  Middlewares\LwIP\mem.o
                                                  Middlewares\LwIP\raw.o
                                                  Middlewares\LwIP\sockets.o
                                                  Middlewares\LwIP\tcp.o
                                                  Middlewares\LwIP\udp.o
netbuf_alloc                                      Middlewares\LwIP\netbuf.o
netbuf_chain                                      Middlewares\LwIP\netbuf.o
netbuf_data                                       Middlewares\LwIP\netbuf.o
netbuf_delete                                     Middlewares\LwIP\netbuf.o
                                                  Middlewares\LwIP\api_msg.o
                                                  Middlewares\LwIP\sockets.o
netbuf_first                                      Middlewares\LwIP\netbuf.o
netbuf_free                                       Middlewares\LwIP\netbuf.o
                                                  Middlewares\LwIP\sockets.o
netbuf_new                                        Middlewares\LwIP\netbuf.o
netbuf_next                                       Middlewares\LwIP\netbuf.o
netbuf_ref                                        Middlewares\LwIP\netbuf.o
                                                  Middlewares\LwIP\sockets.o
netconn_accept                                    Middlewares\LwIP\api_lib.o
                                                  Middlewares\LwIP\sockets.o
netconn_alloc                                     Middlewares\LwIP\api_msg.o
                                                  Middlewares\LwIP\api_lib.o
netconn_bind                                      Middlewares\LwIP\api_lib.o
                                                  Middlewares\LwIP\sockets.o
netconn_close                                     Middlewares\LwIP\api_lib.o
netconn_connect                                   Middlewares\LwIP\api_lib.o
                                                  Middlewares\LwIP\sockets.o
netconn_delete                                    Middlewares\LwIP\api_lib.o
                                                  Middlewares\LwIP\sockets.o
netconn_disconnect                                Middlewares\LwIP\api_lib.o
                                                  Middlewares\LwIP\sockets.o
netconn_free                                      Middlewares\LwIP\api_msg.o
                                                  Middlewares\LwIP\api_lib.o
netconn_getaddr                                   Middlewares\LwIP\api_lib.o
                                                  Middlewares\LwIP\sockets.o
netconn_listen_with_backlog                       Middlewares\LwIP\api_lib.o
                                                  Middlewares\LwIP\sockets.o
netconn_new_with_proto_and_callback               Middlewares\LwIP\api_lib.o
                                                  Middlewares\LwIP\sockets.o
netconn_recv                                      Middlewares\LwIP\api_lib.o
                                                  Middlewares\LwIP\sockets.o
netconn_recv_tcp_pbuf                             Middlewares\LwIP\api_lib.o
                                                  Middlewares\LwIP\sockets.o
netconn_recved                                    Middlewares\LwIP\api_lib.o
                                                  Middlewares\LwIP\sockets.o
netconn_send                                      Middlewares\LwIP\api_lib.o
                                                  Middlewares\LwIP\sockets.o
netconn_sendto                                    Middlewares\LwIP\api_lib.o
netconn_shutdown                                  Middlewares\LwIP\api_lib.o
                                                  Middlewares\LwIP\sockets.o
netconn_write_partly                              Middlewares\LwIP\api_lib.o
                                                  Middlewares\LwIP\sockets.o
netif_add                                         Middlewares\LwIP\netif.o
                                                  Application\User\lwip.o
netif_default                                     Middlewares\LwIP\ip.o
                                                  Middlewares\LwIP\netif.o
netif_find                                        Middlewares\LwIP\netif.o
netif_init                                        Middlewares\LwIP\netif.o
                                                  Middlewares\LwIP\init.o
netif_list                                        Middlewares\LwIP\dhcp.o
                                                  Middlewares\LwIP\ip.o
                                                  Middlewares\LwIP\netif.o
netif_remove                                      Middlewares\LwIP\netif.o
netif_set_addr                                    Middlewares\LwIP\netif.o
netif_set_default                                 Middlewares\LwIP\netif.o
                                                  Application\User\lwip.o
netif_set_down                                    Middlewares\LwIP\netif.o
                                                  Application\User\lwip.o
                                                  Middlewares\LwIP\dhcp.o
netif_set_gw                                      Middlewares\LwIP\netif.o
                                                  Middlewares\LwIP\dhcp.o
netif_set_ipaddr                                  Middlewares\LwIP\netif.o
                                                  Middlewares\LwIP\dhcp.o
netif_set_link_down                               Middlewares\LwIP\netif.o
                                                  Application\User\ethernetif.o
netif_set_link_up                                 Middlewares\LwIP\netif.o
                                                  Application\User\ethernetif.o
netif_set_netmask                                 Middlewares\LwIP\netif.o
                                                  Middlewares\LwIP\dhcp.o
netif_set_up                                      Middlewares\LwIP\netif.o
                                                  Application\User\lwip.o
                                                  Middlewares\LwIP\dhcp.o
netmask                                           Application\User\lwip.o
osDelay                                           Middlewares\FreeRTOS\cmsis_os.o
osDelayUntil                                      Middlewares\FreeRTOS\cmsis_os.o
osKernelRunning                                   Middlewares\FreeRTOS\cmsis_os.o
osKernelStart                                     Middlewares\FreeRTOS\cmsis_os.o
                                                  Application\User\main.o
osKernelSysTick                                   Middlewares\FreeRTOS\cmsis_os.o
osMailAlloc                                       Middlewares\FreeRTOS\cmsis_os.o
osMailCAlloc                                      Middlewares\FreeRTOS\cmsis_os.o
osMailCreate                                      Middlewares\FreeRTOS\cmsis_os.o
osMailFree                                        Middlewares\FreeRTOS\cmsis_os.o
osMailGet                                         Middlewares\FreeRTOS\cmsis_os.o
osMailPut                                         Middlewares\FreeRTOS\cmsis_os.o
osMessageCreate                                   Middlewares\FreeRTOS\cmsis_os.o
osMessageGet                                      Middlewares\FreeRTOS\cmsis_os.o
osMessagePeek                                     Middlewares\FreeRTOS\cmsis_os.o
osMessagePut                                      Middlewares\FreeRTOS\cmsis_os.o
osMutexCreate                                     Middlewares\FreeRTOS\cmsis_os.o
osMutexDelete                                     Middlewares\FreeRTOS\cmsis_os.o
osMutexRelease                                    Middlewares\FreeRTOS\cmsis_os.o
osMutexWait                                       Middlewares\FreeRTOS\cmsis_os.o
osPoolAlloc                                       Middlewares\FreeRTOS\cmsis_os.o
osPoolCAlloc                                      Middlewares\FreeRTOS\cmsis_os.o
osPoolCreate                                      Middlewares\FreeRTOS\cmsis_os.o
osPoolFree                                        Middlewares\FreeRTOS\cmsis_os.o
osRecursiveMutexCreate                            Middlewares\FreeRTOS\cmsis_os.o
osRecursiveMutexRelease                           Middlewares\FreeRTOS\cmsis_os.o
osRecursiveMutexWait                              Middlewares\FreeRTOS\cmsis_os.o
osSemaphoreCreate                                 Middlewares\FreeRTOS\cmsis_os.o
                                                  Application\User\ethernetif.o
osSemaphoreDelete                                 Middlewares\FreeRTOS\cmsis_os.o
osSemaphoreRelease                                Middlewares\FreeRTOS\cmsis_os.o
                                                  Application\User\ethernetif.o
osSemaphoreWait                                   Middlewares\FreeRTOS\cmsis_os.o
                                                  Application\User\ethernetif.o
osSignalSet                                       Middlewares\FreeRTOS\cmsis_os.o
osSignalWait                                      Middlewares\FreeRTOS\cmsis_os.o
osSystickHandler                                  Middlewares\FreeRTOS\cmsis_os.o
                                                  Application\User\stm32f4xx_it.o
osThreadCreate                                    Middlewares\FreeRTOS\cmsis_os.o
                                                  Application\User\ethernetif.o
                                                  Application\User\main.o
osThreadGetId                                     Middlewares\FreeRTOS\cmsis_os.o
osThreadGetPriority                               Middlewares\FreeRTOS\cmsis_os.o
osThreadList                                      Middlewares\FreeRTOS\cmsis_os.o
osThreadResume                                    Middlewares\FreeRTOS\cmsis_os.o
osThreadResumeAll                                 Middlewares\FreeRTOS\cmsis_os.o
osThreadSetPriority                               Middlewares\FreeRTOS\cmsis_os.o
osThreadSuspend                                   Middlewares\FreeRTOS\cmsis_os.o
osThreadSuspendAll                                Middlewares\FreeRTOS\cmsis_os.o
osThreadTerminate                                 Middlewares\FreeRTOS\cmsis_os.o
osThreadYield                                     Middlewares\FreeRTOS\cmsis_os.o
osTimerCreate                                     Middlewares\FreeRTOS\cmsis_os.o
osTimerDelete                                     Middlewares\FreeRTOS\cmsis_os.o
osTimerStart                                      Middlewares\FreeRTOS\cmsis_os.o
osTimerStop                                       Middlewares\FreeRTOS\cmsis_os.o
pFlash                                            Drivers\STM32F4xx_HAL_Driver\stm32f4xx_hal_flash.o
                                                  Drivers\STM32F4xx_HAL_Driver\stm32f4xx_hal_flash_ex.o
pbuf_alloc                                        Middlewares\LwIP\pbuf.o
                                                  Application\User\ethernetif.o
                                                  Middlewares\LwIP\api_msg.o
                                                  Middlewares\LwIP\dhcp.o
                                                  Middlewares\LwIP\etharp.o
                                                  Middlewares\LwIP\icmp.o
                                                  Middlewares\LwIP\ip_frag.o
                                                  Middlewares\LwIP\netbuf.o
                                                  Middlewares\LwIP\raw.o
                                                  Middlewares\LwIP\tcp_out.o
                                                  Middlewares\LwIP\udp.o
pbuf_alloced_custom                               Middlewares\LwIP\pbuf.o
                                                  Middlewares\LwIP\ip_frag.o
pbuf_cat                                          Middlewares\LwIP\pbuf.o
                                                  Middlewares\LwIP\ip_frag.o
                                                  Middlewares\LwIP\netbuf.o
                                                  Middlewares\LwIP\tcp_in.o
                                                  Middlewares\LwIP\tcp_out.o
pbuf_chain                                        Middlewares\LwIP\pbuf.o
                                                  Middlewares\LwIP\raw.o
                                                  Middlewares\LwIP\udp.o
pbuf_clen                                         Middlewares\LwIP\pbuf.o
                                                  Middlewares\LwIP\ip_frag.o
                                                  Middlewares\LwIP\tcp_in.o
                                                  Middlewares\LwIP\tcp_out.o
pbuf_coalesce                                     Middlewares\LwIP\pbuf.o
pbuf_copy                                         Middlewares\LwIP\pbuf.o
                                                  Middlewares\LwIP\api_msg.o
                                                  Middlewares\LwIP\etharp.o
                                                  Middlewares\LwIP\icmp.o
pbuf_copy_partial                                 Middlewares\LwIP\pbuf.o
                                                  Middlewares\LwIP\dhcp.o
                                                  Middlewares\LwIP\sockets.o
                                                  Middlewares\LwIP\tcp_out.o
pbuf_dechain                                      Middlewares\LwIP\pbuf.o
pbuf_free                                         Middlewares\LwIP\pbuf.o
                                                  Application\User\ethernetif.o
                                                  Middlewares\LwIP\api_msg.o
                                                  Middlewares\LwIP\dhcp.o
                                                  Middlewares\LwIP\etharp.o
                                                  Middlewares\LwIP\icmp.o
                                                  Middlewares\LwIP\ip.o
                                                  Middlewares\LwIP\ip_frag.o
                                                  Middlewares\LwIP\netbuf.o
                                                  Middlewares\LwIP\raw.o
                                                  Middlewares\LwIP\sockets.o
                                                  Middlewares\LwIP\tcp.o
                                                  Middlewares\LwIP\tcp_in.o
                                                  Middlewares\LwIP\tcp_out.o
                                                  Middlewares\LwIP\tcpip.o
                                                  Middlewares\LwIP\udp.o
pbuf_free_callback                                Middlewares\LwIP\tcpip.o
pbuf_free_ooseq_pending                           Middlewares\LwIP\pbuf.o
pbuf_get_at                                       Middlewares\LwIP\pbuf.o
pbuf_header                                       Middlewares\LwIP\pbuf.o
                                                  Middlewares\LwIP\etharp.o
                                                  Middlewares\LwIP\icmp.o
                                                  Middlewares\LwIP\ip.o
                                                  Middlewares\LwIP\ip_frag.o
                                                  Middlewares\LwIP\raw.o
                                                  Middlewares\LwIP\tcp_in.o
                                                  Middlewares\LwIP\tcp_out.o
                                                  Middlewares\LwIP\udp.o
pbuf_memcmp                                       Middlewares\LwIP\pbuf.o
pbuf_memfind                                      Middlewares\LwIP\pbuf.o
pbuf_realloc                                      Middlewares\LwIP\pbuf.o
                                                  Middlewares\LwIP\dhcp.o
                                                  Middlewares\LwIP\ip.o
                                                  Middlewares\LwIP\tcp_in.o
pbuf_ref                                          Middlewares\LwIP\pbuf.o
                                                  Middlewares\LwIP\etharp.o
                                                  Middlewares\LwIP\ip_frag.o
                                                  Middlewares\LwIP\tcp.o
pbuf_strstr                                       Middlewares\LwIP\pbuf.o
pbuf_take                                         Middlewares\LwIP\pbuf.o
pvPortMalloc                                      Middlewares\FreeRTOS\heap_4.o
                                                  Middlewares\FreeRTOS\cmsis_os.o
                                                  Middlewares\FreeRTOS\event_groups.o
                                                  Middlewares\FreeRTOS\queue.o
                                                  Middlewares\FreeRTOS\tasks.o
pvTaskIncrementMutexHeldCount                     Middlewares\FreeRTOS\tasks.o
                                                  Middlewares\FreeRTOS\queue.o
pxCurrentTCB                                      Middlewares\FreeRTOS\tasks.o
                                                  Middlewares\FreeRTOS\port.o
pxPortInitialiseStack                             Middlewares\FreeRTOS\port.o
                                                  Middlewares\FreeRTOS\tasks.o
ram_heap                                          Middlewares\LwIP\mem.o
raw_bind                                          Middlewares\LwIP\raw.o
                                                  Middlewares\LwIP\api_msg.o
raw_connect                                       Middlewares\LwIP\raw.o
                                                  Middlewares\LwIP\api_msg.o
raw_input                                         Middlewares\LwIP\raw.o
                                                  Middlewares\LwIP\ip.o
raw_new                                           Middlewares\LwIP\raw.o
                                                  Middlewares\LwIP\api_msg.o
raw_recv                                          Middlewares\LwIP\raw.o
                                                  Middlewares\LwIP\api_msg.o
raw_remove                                        Middlewares\LwIP\raw.o
                                                  Middlewares\LwIP\api_msg.o
raw_send                                          Middlewares\LwIP\raw.o
                                                  Middlewares\LwIP\api_msg.o
raw_sendto                                        Middlewares\LwIP\raw.o
                                                  Middlewares\LwIP\api_msg.o
s_xSemaphore                                      Application\User\ethernetif.o
strlen                                            c:/program files (x86)/atollic/truestudio for arm pro 5.3.1/armtools/bin/../lib/gcc/arm-atollic-eabi/4.8.3/../../../../arm-atollic-eabi/lib/armv7e-m/fpu\libc.a(lib_a-strlen.o)
                                                  Middlewares\LwIP\pbuf.o
sys_arch_mbox_fetch                               Middlewares\LwIP\sys_arch.o
                                                  Middlewares\LwIP\api_lib.o
                                                  Middlewares\LwIP\lwip_timers.o
sys_arch_mbox_tryfetch                            Middlewares\LwIP\sys_arch.o
                                                  Middlewares\LwIP\api_msg.o
sys_arch_protect                                  Middlewares\LwIP\sys_arch.o
sys_arch_sem_wait                                 Middlewares\LwIP\sys_arch.o
                                                  Middlewares\LwIP\sockets.o
                                                  Middlewares\LwIP\sys.o
                                                  Middlewares\LwIP\tcpip.o
sys_arch_unprotect                                Middlewares\LwIP\sys_arch.o
sys_assert                                        Middlewares\LwIP\sys_arch.o
sys_init                                          Middlewares\LwIP\sys_arch.o
                                                  Middlewares\LwIP\init.o
sys_jiffies                                       Application\User\ethernetif.o
sys_mbox_free                                     Middlewares\LwIP\sys_arch.o
                                                  Middlewares\LwIP\api_lib.o
                                                  Middlewares\LwIP\api_msg.o
sys_mbox_new                                      Middlewares\LwIP\sys_arch.o
                                                  Middlewares\LwIP\api_msg.o
                                                  Middlewares\LwIP\tcpip.o
sys_mbox_post                                     Middlewares\LwIP\sys_arch.o
                                                  Middlewares\LwIP\tcpip.o
sys_mbox_set_invalid                              Middlewares\LwIP\sys_arch.o
                                                  Middlewares\LwIP\api_msg.o
sys_mbox_trypost                                  Middlewares\LwIP\sys_arch.o
                                                  Middlewares\LwIP\api_msg.o
                                                  Middlewares\LwIP\tcpip.o
sys_mbox_valid                                    Middlewares\LwIP\sys_arch.o
                                                  Middlewares\LwIP\api_lib.o
                                                  Middlewares\LwIP\api_msg.o
                                                  Middlewares\LwIP\tcpip.o
sys_msleep                                        Middlewares\LwIP\sys.o
sys_mutex_free                                    Middlewares\LwIP\sys_arch.o
sys_mutex_lock                                    Middlewares\LwIP\sys_arch.o
                                                  Middlewares\LwIP\mem.o
sys_mutex_new                                     Middlewares\LwIP\sys_arch.o
                                                  Middlewares\LwIP\mem.o
sys_mutex_unlock                                  Middlewares\LwIP\sys_arch.o
                                                  Middlewares\LwIP\mem.o
sys_now                                           Application\User\ethernetif.o
sys_sem_free                                      Middlewares\LwIP\sys_arch.o
                                                  Middlewares\LwIP\api_lib.o
                                                  Middlewares\LwIP\api_msg.o
                                                  Middlewares\LwIP\sockets.o
                                                  Middlewares\LwIP\sys.o
sys_sem_new                                       Middlewares\LwIP\sys_arch.o
                                                  Middlewares\LwIP\api_msg.o
                                                  Middlewares\LwIP\sockets.o
                                                  Middlewares\LwIP\sys.o
sys_sem_set_invalid                               Middlewares\LwIP\sys_arch.o
                                                  Middlewares\LwIP\api_msg.o
sys_sem_signal                                    Middlewares\LwIP\sys_arch.o
                                                  Middlewares\LwIP\api_msg.o
                                                  Middlewares\LwIP\sockets.o
sys_sem_valid                                     Middlewares\LwIP\sys_arch.o
                                                  Middlewares\LwIP\api_lib.o
                                                  Middlewares\LwIP\api_msg.o
sys_thread_new                                    Middlewares\LwIP\sys_arch.o
                                                  Middlewares\LwIP\tcpip.o
sys_timeout                                       Middlewares\LwIP\lwip_timers.o
                                                  Middlewares\LwIP\tcpip.o
sys_timeouts_init                                 Middlewares\LwIP\lwip_timers.o
                                                  Middlewares\LwIP\init.o
sys_timeouts_mbox_fetch                           Middlewares\LwIP\lwip_timers.o
                                                  Middlewares\LwIP\tcpip.o
sys_untimeout                                     Middlewares\LwIP\lwip_timers.o
                                                  Middlewares\LwIP\tcpip.o
tcp_abandon                                       Middlewares\LwIP\tcp.o
                                                  Middlewares\LwIP\tcp_in.o
tcp_abort                                         Middlewares\LwIP\tcp.o
                                                  Middlewares\LwIP\api_msg.o
                                                  Middlewares\LwIP\netif.o
                                                  Middlewares\LwIP\tcp_in.o
tcp_accept                                        Middlewares\LwIP\tcp.o
                                                  Middlewares\LwIP\api_msg.o
tcp_active_pcbs                                   Middlewares\LwIP\lwip_timers.o
                                                  Middlewares\LwIP\netif.o
                                                  Middlewares\LwIP\pbuf.o
                                                  Middlewares\LwIP\tcp.o
                                                  Middlewares\LwIP\tcp_in.o
tcp_active_pcbs_changed                           Middlewares\LwIP\tcp.o
                                                  Middlewares\LwIP\tcp_in.o
tcp_alloc                                         Middlewares\LwIP\tcp.o
                                                  Middlewares\LwIP\tcp_in.o
tcp_arg                                           Middlewares\LwIP\tcp.o
                                                  Middlewares\LwIP\api_msg.o
tcp_backoff                                       Middlewares\LwIP\tcp.o
tcp_bind                                          Middlewares\LwIP\tcp.o
                                                  Middlewares\LwIP\api_msg.o
tcp_bound_pcbs                                    Middlewares\LwIP\tcp.o
tcp_close                                         Middlewares\LwIP\tcp.o
                                                  Middlewares\LwIP\api_msg.o
tcp_connect                                       Middlewares\LwIP\tcp.o
                                                  Middlewares\LwIP\api_msg.o
tcp_debug_state_str                               Middlewares\LwIP\tcp.o
tcp_eff_send_mss                                  Middlewares\LwIP\tcp.o
                                                  Middlewares\LwIP\tcp_in.o
                                                  Middlewares\LwIP\tcp_out.o
tcp_enqueue_flags                                 Middlewares\LwIP\tcp_out.o
                                                  Middlewares\LwIP\tcp.o
                                                  Middlewares\LwIP\tcp_in.o
tcp_err                                           Middlewares\LwIP\tcp.o
                                                  Middlewares\LwIP\api_msg.o
tcp_fasttmr                                       Middlewares\LwIP\tcp.o
tcp_init                                          Middlewares\LwIP\tcp.o
                                                  Middlewares\LwIP\init.o
tcp_input                                         Middlewares\LwIP\tcp_in.o
                                                  Middlewares\LwIP\ip.o
tcp_input_pcb                                     Middlewares\LwIP\tcp_in.o
                                                  Middlewares\LwIP\tcp_out.o
tcp_keepalive                                     Middlewares\LwIP\tcp_out.o
                                                  Middlewares\LwIP\tcp.o
tcp_listen_pcbs                                   Middlewares\LwIP\netif.o
                                                  Middlewares\LwIP\tcp.o
                                                  Middlewares\LwIP\tcp_in.o
tcp_listen_with_backlog                           Middlewares\LwIP\tcp.o
                                                  Middlewares\LwIP\api_msg.o
tcp_new                                           Middlewares\LwIP\tcp.o
                                                  Middlewares\LwIP\api_msg.o
tcp_next_iss                                      Middlewares\LwIP\tcp.o
tcp_output                                        Middlewares\LwIP\tcp_out.o
                                                  Middlewares\LwIP\api_msg.o
                                                  Middlewares\LwIP\tcp.o
                                                  Middlewares\LwIP\tcp_in.o
tcp_pcb_lists                                     Middlewares\LwIP\tcp.o
tcp_pcb_purge                                     Middlewares\LwIP\tcp.o
                                                  Middlewares\LwIP\tcp_in.o
tcp_pcb_remove                                    Middlewares\LwIP\tcp.o
                                                  Middlewares\LwIP\tcp_in.o
tcp_persist_backoff                               Middlewares\LwIP\tcp.o
tcp_poll                                          Middlewares\LwIP\tcp.o
                                                  Middlewares\LwIP\api_msg.o
tcp_process_refused_data                          Middlewares\LwIP\tcp.o
                                                  Middlewares\LwIP\tcp_in.o
tcp_recv                                          Middlewares\LwIP\tcp.o
                                                  Middlewares\LwIP\api_msg.o
tcp_recv_null                                     Middlewares\LwIP\tcp.o
                                                  Middlewares\LwIP\tcp_in.o
tcp_recved                                        Middlewares\LwIP\tcp.o
                                                  Middlewares\LwIP\api_msg.o
tcp_rexmit                                        Middlewares\LwIP\tcp_out.o
                                                  Middlewares\LwIP\tcp_in.o
tcp_rexmit_fast                                   Middlewares\LwIP\tcp_out.o
                                                  Middlewares\LwIP\tcp_in.o
tcp_rexmit_rto                                    Middlewares\LwIP\tcp_out.o
                                                  Middlewares\LwIP\tcp.o
tcp_rst                                           Middlewares\LwIP\tcp_out.o
                                                  Middlewares\LwIP\tcp.o
                                                  Middlewares\LwIP\tcp_in.o
tcp_seg_copy                                      Middlewares\LwIP\tcp.o
                                                  Middlewares\LwIP\tcp_in.o
tcp_seg_free                                      Middlewares\LwIP\tcp.o
                                                  Middlewares\LwIP\tcp_in.o
                                                  Middlewares\LwIP\tcp_out.o
tcp_segs_free                                     Middlewares\LwIP\tcp.o
                                                  Middlewares\LwIP\pbuf.o
                                                  Middlewares\LwIP\tcp_in.o
                                                  Middlewares\LwIP\tcp_out.o
tcp_send_empty_ack                                Middlewares\LwIP\tcp_out.o
                                                  Middlewares\LwIP\tcp_in.o
tcp_send_fin                                      Middlewares\LwIP\tcp_out.o
                                                  Middlewares\LwIP\tcp.o
tcp_sent                                          Middlewares\LwIP\tcp.o
                                                  Middlewares\LwIP\api_msg.o
tcp_setprio                                       Middlewares\LwIP\tcp.o
tcp_shutdown                                      Middlewares\LwIP\tcp.o
                                                  Middlewares\LwIP\api_msg.o
tcp_slowtmr                                       Middlewares\LwIP\tcp.o
tcp_state_str                                     Middlewares\LwIP\tcp.o
tcp_ticks                                         Middlewares\LwIP\tcp.o
                                                  Middlewares\LwIP\tcp_in.o
                                                  Middlewares\LwIP\tcp_out.o
tcp_timer_needed                                  Middlewares\LwIP\lwip_timers.o
                                                  Middlewares\LwIP\tcp.o
                                                  Middlewares\LwIP\tcp_in.o
tcp_tmp_pcb                                       Middlewares\LwIP\tcp.o
                                                  Middlewares\LwIP\tcp_in.o
tcp_tmr                                           Middlewares\LwIP\tcp.o
                                                  Middlewares\LwIP\lwip_timers.o
tcp_tw_pcbs                                       Middlewares\LwIP\lwip_timers.o
                                                  Middlewares\LwIP\tcp.o
                                                  Middlewares\LwIP\tcp_in.o
tcp_update_rcv_ann_wnd                            Middlewares\LwIP\tcp.o
                                                  Middlewares\LwIP\tcp_in.o
tcp_write                                         Middlewares\LwIP\tcp_out.o
                                                  Middlewares\LwIP\api_msg.o
tcp_zero_window_probe                             Middlewares\LwIP\tcp_out.o
                                                  Middlewares\LwIP\tcp.o
tcpip_apimsg                                      Middlewares\LwIP\tcpip.o
                                                  Middlewares\LwIP\api_lib.o
tcpip_callback_with_block                         Middlewares\LwIP\tcpip.o
                                                  Middlewares\LwIP\pbuf.o
                                                  Middlewares\LwIP\sockets.o
tcpip_callbackmsg_delete                          Middlewares\LwIP\tcpip.o
tcpip_callbackmsg_new                             Middlewares\LwIP\tcpip.o
tcpip_init                                        Middlewares\LwIP\tcpip.o
                                                  Application\User\lwip.o
tcpip_input                                       Middlewares\LwIP\tcpip.o
                                                  Application\User\lwip.o
tcpip_timeout                                     Middlewares\LwIP\tcpip.o
tcpip_trycallback                                 Middlewares\LwIP\tcpip.o
tcpip_untimeout                                   Middlewares\LwIP\tcpip.o
ucQueueGetQueueType                               Middlewares\FreeRTOS\queue.o
udp_bind                                          Middlewares\LwIP\udp.o
                                                  Middlewares\LwIP\api_msg.o
                                                  Middlewares\LwIP\dhcp.o
udp_connect                                       Middlewares\LwIP\udp.o
                                                  Middlewares\LwIP\api_msg.o
                                                  Middlewares\LwIP\dhcp.o
udp_disconnect                                    Middlewares\LwIP\udp.o
                                                  Middlewares\LwIP\api_msg.o
udp_init                                          Middlewares\LwIP\udp.o
                                                  Middlewares\LwIP\init.o
udp_input                                         Middlewares\LwIP\udp.o
                                                  Middlewares\LwIP\ip.o
udp_new                                           Middlewares\LwIP\udp.o
                                                  Middlewares\LwIP\api_msg.o
                                                  Middlewares\LwIP\dhcp.o
udp_pcbs                                          Middlewares\LwIP\udp.o
udp_recv                                          Middlewares\LwIP\udp.o
                                                  Middlewares\LwIP\api_msg.o
                                                  Middlewares\LwIP\dhcp.o
udp_remove                                        Middlewares\LwIP\udp.o
                                                  Middlewares\LwIP\api_msg.o
                                                  Middlewares\LwIP\dhcp.o
udp_send                                          Middlewares\LwIP\udp.o
                                                  Middlewares\LwIP\api_msg.o
udp_sendto                                        Middlewares\LwIP\udp.o
                                                  Middlewares\LwIP\api_msg.o
udp_sendto_if                                     Middlewares\LwIP\udp.o
                                                  Middlewares\LwIP\dhcp.o
ulTaskNotifyTake                                  Middlewares\FreeRTOS\tasks.o
uxEventGroupGetNumber                             Middlewares\FreeRTOS\event_groups.o
uxListRemove                                      Middlewares\FreeRTOS\list.o
                                                  Middlewares\FreeRTOS\tasks.o
uxQueueGetQueueNumber                             Middlewares\FreeRTOS\queue.o
uxQueueMessagesWaiting                            Middlewares\FreeRTOS\queue.o
                                                  Middlewares\LwIP\sys_arch.o
uxQueueMessagesWaitingFromISR                     Middlewares\FreeRTOS\queue.o
uxQueueSpacesAvailable                            Middlewares\FreeRTOS\queue.o
uxTaskGetNumberOfTasks                            Middlewares\FreeRTOS\tasks.o
uxTaskGetSystemState                              Middlewares\FreeRTOS\tasks.o
uxTaskGetTaskNumber                               Middlewares\FreeRTOS\tasks.o
uxTaskPriorityGet                                 Middlewares\FreeRTOS\tasks.o
                                                  Middlewares\FreeRTOS\cmsis_os.o
uxTaskPriorityGetFromISR                          Middlewares\FreeRTOS\tasks.o
                                                  Middlewares\FreeRTOS\cmsis_os.o
uxTaskResetEventItemValue                         Middlewares\FreeRTOS\tasks.o
                                                  Middlewares\FreeRTOS\event_groups.o
vEventGroupClearBitsCallback                      Middlewares\FreeRTOS\event_groups.o
vEventGroupDelete                                 Middlewares\FreeRTOS\event_groups.o
vEventGroupSetBitsCallback                        Middlewares\FreeRTOS\event_groups.o
vListInitialise                                   Middlewares\FreeRTOS\list.o
                                                  Middlewares\FreeRTOS\event_groups.o
                                                  Middlewares\FreeRTOS\queue.o
                                                  Middlewares\FreeRTOS\tasks.o
vListInitialiseItem                               Middlewares\FreeRTOS\list.o
                                                  Middlewares\FreeRTOS\tasks.o
vListInsert                                       Middlewares\FreeRTOS\list.o
                                                  Middlewares\FreeRTOS\tasks.o
vListInsertEnd                                    Middlewares\FreeRTOS\list.o
                                                  Middlewares\FreeRTOS\tasks.o
vPortEndScheduler                                 Middlewares\FreeRTOS\port.o
                                                  Middlewares\FreeRTOS\tasks.o
vPortEnterCritical                                Middlewares\FreeRTOS\port.o
                                                  Middlewares\FreeRTOS\cmsis_os.o
                                                  Middlewares\FreeRTOS\event_groups.o
                                                  Middlewares\FreeRTOS\queue.o
                                                  Middlewares\FreeRTOS\tasks.o
                                                  Middlewares\LwIP\sys_arch.o
vPortExitCritical                                 Middlewares\FreeRTOS\port.o
                                                  Middlewares\FreeRTOS\cmsis_os.o
                                                  Middlewares\FreeRTOS\event_groups.o
                                                  Middlewares\FreeRTOS\queue.o
                                                  Middlewares\FreeRTOS\tasks.o
                                                  Middlewares\LwIP\sys_arch.o
vPortFree                                         Middlewares\FreeRTOS\heap_4.o
                                                  Middlewares\FreeRTOS\cmsis_os.o
                                                  Middlewares\FreeRTOS\event_groups.o
                                                  Middlewares\FreeRTOS\queue.o
                                                  Middlewares\FreeRTOS\tasks.o
vPortInitialiseBlocks                             Middlewares\FreeRTOS\heap_4.o
vPortSetupTimerInterrupt                          Middlewares\FreeRTOS\port.o
vPortValidateInterruptPriority                    Middlewares\FreeRTOS\port.o
                                                  Middlewares\FreeRTOS\queue.o
                                                  Middlewares\FreeRTOS\tasks.o
vQueueAddToRegistry                               Middlewares\FreeRTOS\queue.o
vQueueDelete                                      Middlewares\FreeRTOS\queue.o
                                                  Middlewares\FreeRTOS\cmsis_os.o
                                                  Middlewares\LwIP\sys_arch.o
vQueueSetQueueNumber                              Middlewares\FreeRTOS\queue.o
vQueueUnregisterQueue                             Middlewares\FreeRTOS\queue.o
vTaskDelay                                        Middlewares\FreeRTOS\tasks.o
                                                  Middlewares\FreeRTOS\cmsis_os.o
vTaskDelete                                       Middlewares\FreeRTOS\tasks.o
                                                  Middlewares\FreeRTOS\cmsis_os.o
vTaskEndScheduler                                 Middlewares\FreeRTOS\tasks.o
vTaskMissedYield                                  Middlewares\FreeRTOS\tasks.o
                                                  Middlewares\FreeRTOS\queue.o
vTaskNotifyGiveFromISR                            Middlewares\FreeRTOS\tasks.o
vTaskPlaceOnEventList                             Middlewares\FreeRTOS\tasks.o
                                                  Middlewares\FreeRTOS\queue.o
vTaskPlaceOnUnorderedEventList                    Middlewares\FreeRTOS\tasks.o
                                                  Middlewares\FreeRTOS\event_groups.o
vTaskPriorityInherit                              Middlewares\FreeRTOS\tasks.o
                                                  Middlewares\FreeRTOS\queue.o
vTaskPrioritySet                                  Middlewares\FreeRTOS\tasks.o
                                                  Middlewares\FreeRTOS\cmsis_os.o
vTaskResume                                       Middlewares\FreeRTOS\tasks.o
                                                  Middlewares\FreeRTOS\cmsis_os.o
vTaskSetTaskNumber                                Middlewares\FreeRTOS\tasks.o
vTaskSetTimeOutState                              Middlewares\FreeRTOS\tasks.o
                                                  Middlewares\FreeRTOS\queue.o
vTaskStartScheduler                               Middlewares\FreeRTOS\tasks.o
                                                  Middlewares\FreeRTOS\cmsis_os.o
vTaskSuspend                                      Middlewares\FreeRTOS\tasks.o
                                                  Middlewares\FreeRTOS\cmsis_os.o
vTaskSuspendAll                                   Middlewares\FreeRTOS\tasks.o
                                                  Middlewares\FreeRTOS\cmsis_os.o
                                                  Middlewares\FreeRTOS\event_groups.o
                                                  Middlewares\FreeRTOS\heap_4.o
                                                  Middlewares\FreeRTOS\queue.o
vTaskSwitchContext                                Middlewares\FreeRTOS\tasks.o
                                                  Middlewares\FreeRTOS\port.o
xEventGroupClearBits                              Middlewares\FreeRTOS\event_groups.o
xEventGroupCreate                                 Middlewares\FreeRTOS\event_groups.o
xEventGroupGetBitsFromISR                         Middlewares\FreeRTOS\event_groups.o
xEventGroupSetBits                                Middlewares\FreeRTOS\event_groups.o
xEventGroupSync                                   Middlewares\FreeRTOS\event_groups.o
xEventGroupWaitBits                               Middlewares\FreeRTOS\event_groups.o
xPortGetFreeHeapSize                              Middlewares\FreeRTOS\heap_4.o
xPortGetMinimumEverFreeHeapSize                   Middlewares\FreeRTOS\heap_4.o
xPortStartScheduler                               Middlewares\FreeRTOS\port.o
                                                  Middlewares\FreeRTOS\tasks.o
xPortSysTickHandler                               Middlewares\FreeRTOS\port.o
                                                  Middlewares\FreeRTOS\cmsis_os.o
xQueueCreateCountingSemaphore                     Middlewares\FreeRTOS\queue.o
                                                  Middlewares\FreeRTOS\cmsis_os.o
xQueueCreateMutex                                 Middlewares\FreeRTOS\queue.o
                                                  Middlewares\FreeRTOS\cmsis_os.o
                                                  Middlewares\LwIP\sys_arch.o
xQueueGenericCreate                               Middlewares\FreeRTOS\queue.o
                                                  Middlewares\FreeRTOS\cmsis_os.o
                                                  Middlewares\LwIP\sys_arch.o
xQueueGenericReceive                              Middlewares\FreeRTOS\queue.o
                                                  Middlewares\FreeRTOS\cmsis_os.o
                                                  Middlewares\LwIP\sys_arch.o
xQueueGenericReset                                Middlewares\FreeRTOS\queue.o
xQueueGenericSend                                 Middlewares\FreeRTOS\queue.o
                                                  Middlewares\FreeRTOS\cmsis_os.o
                                                  Middlewares\LwIP\sys_arch.o
xQueueGenericSendFromISR                          Middlewares\FreeRTOS\queue.o
                                                  Middlewares\FreeRTOS\cmsis_os.o
xQueueGiveFromISR                                 Middlewares\FreeRTOS\queue.o
                                                  Middlewares\FreeRTOS\cmsis_os.o
xQueueGiveMutexRecursive                          Middlewares\FreeRTOS\queue.o
                                                  Middlewares\FreeRTOS\cmsis_os.o
xQueueIsQueueEmptyFromISR                         Middlewares\FreeRTOS\queue.o
xQueueIsQueueFullFromISR                          Middlewares\FreeRTOS\queue.o
xQueuePeekFromISR                                 Middlewares\FreeRTOS\queue.o
xQueueReceiveFromISR                              Middlewares\FreeRTOS\queue.o
                                                  Middlewares\FreeRTOS\cmsis_os.o
xQueueRegistry                                    Middlewares\FreeRTOS\queue.o
xQueueTakeMutexRecursive                          Middlewares\FreeRTOS\queue.o
                                                  Middlewares\FreeRTOS\cmsis_os.o
xTaskCheckForTimeOut                              Middlewares\FreeRTOS\tasks.o
                                                  Middlewares\FreeRTOS\queue.o
xTaskGenericCreate                                Middlewares\FreeRTOS\tasks.o
                                                  Middlewares\FreeRTOS\cmsis_os.o
                                                  Middlewares\LwIP\sys_arch.o
xTaskGenericNotify                                Middlewares\FreeRTOS\tasks.o
                                                  Middlewares\FreeRTOS\cmsis_os.o
xTaskGetCurrentTaskHandle                         Middlewares\FreeRTOS\tasks.o
                                                  Middlewares\FreeRTOS\cmsis_os.o
                                                  Middlewares\FreeRTOS\queue.o
xTaskGetSchedulerState                            Middlewares\FreeRTOS\tasks.o
                                                  Middlewares\FreeRTOS\cmsis_os.o
                                                  Middlewares\FreeRTOS\event_groups.o
                                                  Middlewares\FreeRTOS\queue.o
xTaskGetTickCount                                 Middlewares\FreeRTOS\tasks.o
                                                  Middlewares\FreeRTOS\cmsis_os.o
                                                  Middlewares\LwIP\sys_arch.o
xTaskGetTickCountFromISR                          Middlewares\FreeRTOS\tasks.o
                                                  Middlewares\FreeRTOS\cmsis_os.o
xTaskIncrementTick                                Middlewares\FreeRTOS\tasks.o
                                                  Middlewares\FreeRTOS\port.o
xTaskNotifyFromISR                                Middlewares\FreeRTOS\tasks.o
                                                  Middlewares\FreeRTOS\cmsis_os.o
xTaskNotifyWait                                   Middlewares\FreeRTOS\tasks.o
                                                  Middlewares\FreeRTOS\cmsis_os.o
xTaskPriorityDisinherit                           Middlewares\FreeRTOS\tasks.o
                                                  Middlewares\FreeRTOS\queue.o
xTaskRemoveFromEventList                          Middlewares\FreeRTOS\tasks.o
                                                  Middlewares\FreeRTOS\queue.o
xTaskRemoveFromUnorderedEventList                 Middlewares\FreeRTOS\tasks.o
                                                  Middlewares\FreeRTOS\event_groups.o
xTaskResumeAll                                    Middlewares\FreeRTOS\tasks.o
                                                  Middlewares\FreeRTOS\cmsis_os.o
                                                  Middlewares\FreeRTOS\event_groups.o
                                                  Middlewares\FreeRTOS\heap_4.o
                                                  Middlewares\FreeRTOS\queue.o
xTaskResumeFromISR                                Middlewares\FreeRTOS\tasks.o
                                                  Middlewares\FreeRTOS\cmsis_os.o
